
bufbomb:     file format elf32-i386


Disassembly of section .init:

08049000 <_init>:
 8049000:	53                   	push   %ebx
 8049001:	83 ec 08             	sub    $0x8,%esp
 8049004:	e8 c7 02 00 00       	call   80492d0 <__x86.get_pc_thunk.bx>
 8049009:	81 c3 f7 3f 00 00    	add    $0x3ff7,%ebx
 804900f:	8b 83 fc ff ff ff    	mov    -0x4(%ebx),%eax
 8049015:	85 c0                	test   %eax,%eax
 8049017:	74 02                	je     804901b <_init+0x1b>
 8049019:	ff d0                	call   *%eax
 804901b:	83 c4 08             	add    $0x8,%esp
 804901e:	5b                   	pop    %ebx
 804901f:	c3                   	ret    

Disassembly of section .plt:

08049020 <.plt>:
 8049020:	ff 35 04 d0 04 08    	pushl  0x804d004
 8049026:	ff 25 08 d0 04 08    	jmp    *0x804d008
 804902c:	00 00                	add    %al,(%eax)
	...

08049030 <strcmp@plt>:
 8049030:	ff 25 0c d0 04 08    	jmp    *0x804d00c
 8049036:	68 00 00 00 00       	push   $0x0
 804903b:	e9 e0 ff ff ff       	jmp    8049020 <.plt>

08049040 <read@plt>:
 8049040:	ff 25 10 d0 04 08    	jmp    *0x804d010
 8049046:	68 08 00 00 00       	push   $0x8
 804904b:	e9 d0 ff ff ff       	jmp    8049020 <.plt>

08049050 <srandom@plt>:
 8049050:	ff 25 14 d0 04 08    	jmp    *0x804d014
 8049056:	68 10 00 00 00       	push   $0x10
 804905b:	e9 c0 ff ff ff       	jmp    8049020 <.plt>

08049060 <printf@plt>:
 8049060:	ff 25 18 d0 04 08    	jmp    *0x804d018
 8049066:	68 18 00 00 00       	push   $0x18
 804906b:	e9 b0 ff ff ff       	jmp    8049020 <.plt>

08049070 <memmove@plt>:
 8049070:	ff 25 1c d0 04 08    	jmp    *0x804d01c
 8049076:	68 20 00 00 00       	push   $0x20
 804907b:	e9 a0 ff ff ff       	jmp    8049020 <.plt>

08049080 <strdup@plt>:
 8049080:	ff 25 20 d0 04 08    	jmp    *0x804d020
 8049086:	68 28 00 00 00       	push   $0x28
 804908b:	e9 90 ff ff ff       	jmp    8049020 <.plt>

08049090 <memcpy@plt>:
 8049090:	ff 25 24 d0 04 08    	jmp    *0x804d024
 8049096:	68 30 00 00 00       	push   $0x30
 804909b:	e9 80 ff ff ff       	jmp    8049020 <.plt>

080490a0 <signal@plt>:
 80490a0:	ff 25 28 d0 04 08    	jmp    *0x804d028
 80490a6:	68 38 00 00 00       	push   $0x38
 80490ab:	e9 70 ff ff ff       	jmp    8049020 <.plt>

080490b0 <memcmp@plt>:
 80490b0:	ff 25 2c d0 04 08    	jmp    *0x804d02c
 80490b6:	68 40 00 00 00       	push   $0x40
 80490bb:	e9 60 ff ff ff       	jmp    8049020 <.plt>

080490c0 <alarm@plt>:
 80490c0:	ff 25 30 d0 04 08    	jmp    *0x804d030
 80490c6:	68 48 00 00 00       	push   $0x48
 80490cb:	e9 50 ff ff ff       	jmp    8049020 <.plt>

080490d0 <htons@plt>:
 80490d0:	ff 25 34 d0 04 08    	jmp    *0x804d034
 80490d6:	68 50 00 00 00       	push   $0x50
 80490db:	e9 40 ff ff ff       	jmp    8049020 <.plt>

080490e0 <fwrite@plt>:
 80490e0:	ff 25 38 d0 04 08    	jmp    *0x804d038
 80490e6:	68 58 00 00 00       	push   $0x58
 80490eb:	e9 30 ff ff ff       	jmp    8049020 <.plt>

080490f0 <strcpy@plt>:
 80490f0:	ff 25 3c d0 04 08    	jmp    *0x804d03c
 80490f6:	68 60 00 00 00       	push   $0x60
 80490fb:	e9 20 ff ff ff       	jmp    8049020 <.plt>

08049100 <getpid@plt>:
 8049100:	ff 25 40 d0 04 08    	jmp    *0x804d040
 8049106:	68 68 00 00 00       	push   $0x68
 804910b:	e9 10 ff ff ff       	jmp    8049020 <.plt>

08049110 <gethostname@plt>:
 8049110:	ff 25 44 d0 04 08    	jmp    *0x804d044
 8049116:	68 70 00 00 00       	push   $0x70
 804911b:	e9 00 ff ff ff       	jmp    8049020 <.plt>

08049120 <puts@plt>:
 8049120:	ff 25 48 d0 04 08    	jmp    *0x804d048
 8049126:	68 78 00 00 00       	push   $0x78
 804912b:	e9 f0 fe ff ff       	jmp    8049020 <.plt>

08049130 <exit@plt>:
 8049130:	ff 25 4c d0 04 08    	jmp    *0x804d04c
 8049136:	68 80 00 00 00       	push   $0x80
 804913b:	e9 e0 fe ff ff       	jmp    8049020 <.plt>

08049140 <srand@plt>:
 8049140:	ff 25 50 d0 04 08    	jmp    *0x804d050
 8049146:	68 88 00 00 00       	push   $0x88
 804914b:	e9 d0 fe ff ff       	jmp    8049020 <.plt>

08049150 <mmap@plt>:
 8049150:	ff 25 54 d0 04 08    	jmp    *0x804d054
 8049156:	68 90 00 00 00       	push   $0x90
 804915b:	e9 c0 fe ff ff       	jmp    8049020 <.plt>

08049160 <strlen@plt>:
 8049160:	ff 25 58 d0 04 08    	jmp    *0x804d058
 8049166:	68 98 00 00 00       	push   $0x98
 804916b:	e9 b0 fe ff ff       	jmp    8049020 <.plt>

08049170 <__libc_start_main@plt>:
 8049170:	ff 25 5c d0 04 08    	jmp    *0x804d05c
 8049176:	68 a0 00 00 00       	push   $0xa0
 804917b:	e9 a0 fe ff ff       	jmp    8049020 <.plt>

08049180 <write@plt>:
 8049180:	ff 25 60 d0 04 08    	jmp    *0x804d060
 8049186:	68 a8 00 00 00       	push   $0xa8
 804918b:	e9 90 fe ff ff       	jmp    8049020 <.plt>

08049190 <getopt@plt>:
 8049190:	ff 25 64 d0 04 08    	jmp    *0x804d064
 8049196:	68 b0 00 00 00       	push   $0xb0
 804919b:	e9 80 fe ff ff       	jmp    8049020 <.plt>

080491a0 <strcasecmp@plt>:
 80491a0:	ff 25 68 d0 04 08    	jmp    *0x804d068
 80491a6:	68 b8 00 00 00       	push   $0xb8
 80491ab:	e9 70 fe ff ff       	jmp    8049020 <.plt>

080491b0 <__isoc99_sscanf@plt>:
 80491b0:	ff 25 6c d0 04 08    	jmp    *0x804d06c
 80491b6:	68 c0 00 00 00       	push   $0xc0
 80491bb:	e9 60 fe ff ff       	jmp    8049020 <.plt>

080491c0 <memset@plt>:
 80491c0:	ff 25 70 d0 04 08    	jmp    *0x804d070
 80491c6:	68 c8 00 00 00       	push   $0xc8
 80491cb:	e9 50 fe ff ff       	jmp    8049020 <.plt>

080491d0 <__errno_location@plt>:
 80491d0:	ff 25 74 d0 04 08    	jmp    *0x804d074
 80491d6:	68 d0 00 00 00       	push   $0xd0
 80491db:	e9 40 fe ff ff       	jmp    8049020 <.plt>

080491e0 <rand@plt>:
 80491e0:	ff 25 78 d0 04 08    	jmp    *0x804d078
 80491e6:	68 d8 00 00 00       	push   $0xd8
 80491eb:	e9 30 fe ff ff       	jmp    8049020 <.plt>

080491f0 <munmap@plt>:
 80491f0:	ff 25 7c d0 04 08    	jmp    *0x804d07c
 80491f6:	68 e0 00 00 00       	push   $0xe0
 80491fb:	e9 20 fe ff ff       	jmp    8049020 <.plt>

08049200 <sprintf@plt>:
 8049200:	ff 25 80 d0 04 08    	jmp    *0x804d080
 8049206:	68 e8 00 00 00       	push   $0xe8
 804920b:	e9 10 fe ff ff       	jmp    8049020 <.plt>

08049210 <socket@plt>:
 8049210:	ff 25 84 d0 04 08    	jmp    *0x804d084
 8049216:	68 f0 00 00 00       	push   $0xf0
 804921b:	e9 00 fe ff ff       	jmp    8049020 <.plt>

08049220 <getc@plt>:
 8049220:	ff 25 88 d0 04 08    	jmp    *0x804d088
 8049226:	68 f8 00 00 00       	push   $0xf8
 804922b:	e9 f0 fd ff ff       	jmp    8049020 <.plt>

08049230 <random@plt>:
 8049230:	ff 25 8c d0 04 08    	jmp    *0x804d08c
 8049236:	68 00 01 00 00       	push   $0x100
 804923b:	e9 e0 fd ff ff       	jmp    8049020 <.plt>

08049240 <gethostbyname@plt>:
 8049240:	ff 25 90 d0 04 08    	jmp    *0x804d090
 8049246:	68 08 01 00 00       	push   $0x108
 804924b:	e9 d0 fd ff ff       	jmp    8049020 <.plt>

08049250 <connect@plt>:
 8049250:	ff 25 94 d0 04 08    	jmp    *0x804d094
 8049256:	68 10 01 00 00       	push   $0x110
 804925b:	e9 c0 fd ff ff       	jmp    8049020 <.plt>

08049260 <close@plt>:
 8049260:	ff 25 98 d0 04 08    	jmp    *0x804d098
 8049266:	68 18 01 00 00       	push   $0x118
 804926b:	e9 b0 fd ff ff       	jmp    8049020 <.plt>

08049270 <calloc@plt>:
 8049270:	ff 25 9c d0 04 08    	jmp    *0x804d09c
 8049276:	68 20 01 00 00       	push   $0x120
 804927b:	e9 a0 fd ff ff       	jmp    8049020 <.plt>

Disassembly of section .text:

08049280 <_start>:
 8049280:	31 ed                	xor    %ebp,%ebp
 8049282:	5e                   	pop    %esi
 8049283:	89 e1                	mov    %esp,%ecx
 8049285:	83 e4 f0             	and    $0xfffffff0,%esp
 8049288:	50                   	push   %eax
 8049289:	54                   	push   %esp
 804928a:	52                   	push   %edx
 804928b:	e8 23 00 00 00       	call   80492b3 <_start+0x33>
 8049290:	81 c3 70 3d 00 00    	add    $0x3d70,%ebx
 8049296:	8d 83 60 dc ff ff    	lea    -0x23a0(%ebx),%eax
 804929c:	50                   	push   %eax
 804929d:	8d 83 00 dc ff ff    	lea    -0x2400(%ebx),%eax
 80492a3:	50                   	push   %eax
 80492a4:	51                   	push   %ecx
 80492a5:	56                   	push   %esi
 80492a6:	c7 c0 21 9a 04 08    	mov    $0x8049a21,%eax
 80492ac:	50                   	push   %eax
 80492ad:	e8 be fe ff ff       	call   8049170 <__libc_start_main@plt>
 80492b2:	f4                   	hlt    
 80492b3:	8b 1c 24             	mov    (%esp),%ebx
 80492b6:	c3                   	ret    
 80492b7:	66 90                	xchg   %ax,%ax
 80492b9:	66 90                	xchg   %ax,%ax
 80492bb:	66 90                	xchg   %ax,%ax
 80492bd:	66 90                	xchg   %ax,%ax
 80492bf:	90                   	nop

080492c0 <_dl_relocate_static_pie>:
 80492c0:	c3                   	ret    
 80492c1:	66 90                	xchg   %ax,%ax
 80492c3:	66 90                	xchg   %ax,%ax
 80492c5:	66 90                	xchg   %ax,%ax
 80492c7:	66 90                	xchg   %ax,%ax
 80492c9:	66 90                	xchg   %ax,%ax
 80492cb:	66 90                	xchg   %ax,%ax
 80492cd:	66 90                	xchg   %ax,%ax
 80492cf:	90                   	nop

080492d0 <__x86.get_pc_thunk.bx>:
 80492d0:	8b 1c 24             	mov    (%esp),%ebx
 80492d3:	c3                   	ret    
 80492d4:	66 90                	xchg   %ax,%ax
 80492d6:	66 90                	xchg   %ax,%ax
 80492d8:	66 90                	xchg   %ax,%ax
 80492da:	66 90                	xchg   %ax,%ax
 80492dc:	66 90                	xchg   %ax,%ax
 80492de:	66 90                	xchg   %ax,%ax

080492e0 <deregister_tm_clones>:
 80492e0:	b8 20 d2 04 08       	mov    $0x804d220,%eax
 80492e5:	3d 20 d2 04 08       	cmp    $0x804d220,%eax
 80492ea:	74 24                	je     8049310 <deregister_tm_clones+0x30>
 80492ec:	b8 00 00 00 00       	mov    $0x0,%eax
 80492f1:	85 c0                	test   %eax,%eax
 80492f3:	74 1b                	je     8049310 <deregister_tm_clones+0x30>
 80492f5:	55                   	push   %ebp
 80492f6:	89 e5                	mov    %esp,%ebp
 80492f8:	83 ec 14             	sub    $0x14,%esp
 80492fb:	68 20 d2 04 08       	push   $0x804d220
 8049300:	ff d0                	call   *%eax
 8049302:	83 c4 10             	add    $0x10,%esp
 8049305:	c9                   	leave  
 8049306:	c3                   	ret    
 8049307:	8d b4 26 00 00 00 00 	lea    0x0(%esi,%eiz,1),%esi
 804930e:	66 90                	xchg   %ax,%ax
 8049310:	c3                   	ret    
 8049311:	8d b4 26 00 00 00 00 	lea    0x0(%esi,%eiz,1),%esi
 8049318:	8d b4 26 00 00 00 00 	lea    0x0(%esi,%eiz,1),%esi
 804931f:	90                   	nop

08049320 <register_tm_clones>:
 8049320:	b8 20 d2 04 08       	mov    $0x804d220,%eax
 8049325:	2d 20 d2 04 08       	sub    $0x804d220,%eax
 804932a:	c1 f8 02             	sar    $0x2,%eax
 804932d:	89 c2                	mov    %eax,%edx
 804932f:	c1 ea 1f             	shr    $0x1f,%edx
 8049332:	01 d0                	add    %edx,%eax
 8049334:	d1 f8                	sar    %eax
 8049336:	74 20                	je     8049358 <register_tm_clones+0x38>
 8049338:	ba 00 00 00 00       	mov    $0x0,%edx
 804933d:	85 d2                	test   %edx,%edx
 804933f:	74 17                	je     8049358 <register_tm_clones+0x38>
 8049341:	55                   	push   %ebp
 8049342:	89 e5                	mov    %esp,%ebp
 8049344:	83 ec 10             	sub    $0x10,%esp
 8049347:	50                   	push   %eax
 8049348:	68 20 d2 04 08       	push   $0x804d220
 804934d:	ff d2                	call   *%edx
 804934f:	83 c4 10             	add    $0x10,%esp
 8049352:	c9                   	leave  
 8049353:	c3                   	ret    
 8049354:	8d 74 26 00          	lea    0x0(%esi,%eiz,1),%esi
 8049358:	c3                   	ret    
 8049359:	8d b4 26 00 00 00 00 	lea    0x0(%esi,%eiz,1),%esi

08049360 <__do_global_dtors_aux>:
 8049360:	80 3d 4c d2 04 08 00 	cmpb   $0x0,0x804d24c
 8049367:	75 17                	jne    8049380 <__do_global_dtors_aux+0x20>
 8049369:	55                   	push   %ebp
 804936a:	89 e5                	mov    %esp,%ebp
 804936c:	83 ec 08             	sub    $0x8,%esp
 804936f:	e8 6c ff ff ff       	call   80492e0 <deregister_tm_clones>
 8049374:	c6 05 4c d2 04 08 01 	movb   $0x1,0x804d24c
 804937b:	c9                   	leave  
 804937c:	c3                   	ret    
 804937d:	8d 76 00             	lea    0x0(%esi),%esi
 8049380:	c3                   	ret    
 8049381:	8d b4 26 00 00 00 00 	lea    0x0(%esi,%eiz,1),%esi
 8049388:	8d b4 26 00 00 00 00 	lea    0x0(%esi,%eiz,1),%esi
 804938f:	90                   	nop

08049390 <frame_dummy>:
 8049390:	eb 8e                	jmp    8049320 <register_tm_clones>

08049392 <jAnneEoKkC>:
 8049392:	55                   	push   %ebp
 8049393:	89 e5                	mov    %esp,%ebp
 8049395:	83 ec 08             	sub    $0x8,%esp
 8049398:	90                   	nop
 8049399:	90                   	nop
 804939a:	90                   	nop
 804939b:	90                   	nop
 804939c:	90                   	nop
 804939d:	90                   	nop
 804939e:	90                   	nop
 804939f:	90                   	nop
 80493a0:	90                   	nop
 80493a1:	90                   	nop
 80493a2:	90                   	nop
 80493a3:	90                   	nop
 80493a4:	90                   	nop
 80493a5:	90                   	nop
 80493a6:	90                   	nop
 80493a7:	90                   	nop
 80493a8:	90                   	nop
 80493a9:	90                   	nop
 80493aa:	90                   	nop
 80493ab:	90                   	nop
 80493ac:	90                   	nop
 80493ad:	90                   	nop
 80493ae:	90                   	nop
 80493af:	90                   	nop
 80493b0:	90                   	nop
 80493b1:	90                   	nop
 80493b2:	90                   	nop
 80493b3:	90                   	nop
 80493b4:	90                   	nop
 80493b5:	90                   	nop
 80493b6:	90                   	nop
 80493b7:	90                   	nop
 80493b8:	90                   	nop
 80493b9:	90                   	nop
 80493ba:	90                   	nop
 80493bb:	90                   	nop
 80493bc:	90                   	nop
 80493bd:	90                   	nop
 80493be:	90                   	nop
 80493bf:	90                   	nop
 80493c0:	90                   	nop
 80493c1:	90                   	nop
 80493c2:	90                   	nop
 80493c3:	90                   	nop
 80493c4:	90                   	nop
 80493c5:	90                   	nop
 80493c6:	90                   	nop
 80493c7:	90                   	nop
 80493c8:	90                   	nop
 80493c9:	90                   	nop
 80493ca:	90                   	nop
 80493cb:	90                   	nop
 80493cc:	90                   	nop
 80493cd:	90                   	nop
 80493ce:	90                   	nop
 80493cf:	90                   	nop
 80493d0:	90                   	nop
 80493d1:	90                   	nop
 80493d2:	90                   	nop
 80493d3:	90                   	nop
 80493d4:	90                   	nop
 80493d5:	90                   	nop
 80493d6:	90                   	nop
 80493d7:	d9 45 08             	flds   0x8(%ebp)
 80493da:	d8 65 10             	fsubs  0x10(%ebp)
 80493dd:	d8 4d 0c             	fmuls  0xc(%ebp)
 80493e0:	d9 45 08             	flds   0x8(%ebp)
 80493e3:	d8 45 0c             	fadds  0xc(%ebp)
 80493e6:	d8 4d 10             	fmuls  0x10(%ebp)
 80493e9:	de c1                	faddp  %st,%st(1)
 80493eb:	d9 7d fe             	fnstcw -0x2(%ebp)
 80493ee:	0f b7 45 fe          	movzwl -0x2(%ebp),%eax
 80493f2:	80 cc 0c             	or     $0xc,%ah
 80493f5:	66 89 45 fc          	mov    %ax,-0x4(%ebp)
 80493f9:	d9 6d fc             	fldcw  -0x4(%ebp)
 80493fc:	db 5d f8             	fistpl -0x8(%ebp)
 80493ff:	d9 6d fe             	fldcw  -0x2(%ebp)
 8049402:	8b 45 f8             	mov    -0x8(%ebp),%eax
 8049405:	c9                   	leave  
 8049406:	c3                   	ret    

08049407 <smoke>:
 8049407:	55                   	push   %ebp
 8049408:	89 e5                	mov    %esp,%ebp
 804940a:	83 ec 08             	sub    $0x8,%esp
 804940d:	83 ec 0c             	sub    $0xc,%esp
 8049410:	68 4c b0 04 08       	push   $0x804b04c
 8049415:	e8 06 fd ff ff       	call   8049120 <puts@plt>
 804941a:	83 c4 10             	add    $0x10,%esp
 804941d:	83 ec 0c             	sub    $0xc,%esp
 8049420:	6a 00                	push   $0x0
 8049422:	e8 cf 09 00 00       	call   8049df6 <validate>
 8049427:	83 c4 10             	add    $0x10,%esp
 804942a:	83 ec 0c             	sub    $0xc,%esp
 804942d:	6a 00                	push   $0x0
 804942f:	e8 fc fc ff ff       	call   8049130 <exit@plt>

08049434 <fizz>:
 8049434:	55                   	push   %ebp
 8049435:	89 e5                	mov    %esp,%ebp
 8049437:	83 ec 08             	sub    $0x8,%esp
 804943a:	8b 55 08             	mov    0x8(%ebp),%edx
 804943d:	a1 60 d2 04 08       	mov    0x804d260,%eax
 8049442:	39 c2                	cmp    %eax,%edx
 8049444:	75 22                	jne    8049468 <fizz+0x34>
 8049446:	83 ec 08             	sub    $0x8,%esp
 8049449:	ff 75 08             	pushl  0x8(%ebp)
 804944c:	68 67 b0 04 08       	push   $0x804b067
 8049451:	e8 0a fc ff ff       	call   8049060 <printf@plt>
 8049456:	83 c4 10             	add    $0x10,%esp
 8049459:	83 ec 0c             	sub    $0xc,%esp
 804945c:	6a 01                	push   $0x1
 804945e:	e8 93 09 00 00       	call   8049df6 <validate>
 8049463:	83 c4 10             	add    $0x10,%esp
 8049466:	eb 13                	jmp    804947b <fizz+0x47>
 8049468:	83 ec 08             	sub    $0x8,%esp
 804946b:	ff 75 08             	pushl  0x8(%ebp)
 804946e:	68 88 b0 04 08       	push   $0x804b088
 8049473:	e8 e8 fb ff ff       	call   8049060 <printf@plt>
 8049478:	83 c4 10             	add    $0x10,%esp
 804947b:	83 ec 0c             	sub    $0xc,%esp
 804947e:	6a 00                	push   $0x0
 8049480:	e8 ab fc ff ff       	call   8049130 <exit@plt>

08049485 <bang>:
 8049485:	55                   	push   %ebp
 8049486:	89 e5                	mov    %esp,%ebp
 8049488:	83 ec 08             	sub    $0x8,%esp
 804948b:	a1 68 d2 04 08       	mov    0x804d268,%eax
 8049490:	89 c2                	mov    %eax,%edx
 8049492:	a1 60 d2 04 08       	mov    0x804d260,%eax
 8049497:	39 c2                	cmp    %eax,%edx
 8049499:	75 25                	jne    80494c0 <bang+0x3b>
 804949b:	a1 68 d2 04 08       	mov    0x804d268,%eax
 80494a0:	83 ec 08             	sub    $0x8,%esp
 80494a3:	50                   	push   %eax
 80494a4:	68 a8 b0 04 08       	push   $0x804b0a8
 80494a9:	e8 b2 fb ff ff       	call   8049060 <printf@plt>
 80494ae:	83 c4 10             	add    $0x10,%esp
 80494b1:	83 ec 0c             	sub    $0xc,%esp
 80494b4:	6a 02                	push   $0x2
 80494b6:	e8 3b 09 00 00       	call   8049df6 <validate>
 80494bb:	83 c4 10             	add    $0x10,%esp
 80494be:	eb 16                	jmp    80494d6 <bang+0x51>
 80494c0:	a1 68 d2 04 08       	mov    0x804d268,%eax
 80494c5:	83 ec 08             	sub    $0x8,%esp
 80494c8:	50                   	push   %eax
 80494c9:	68 cd b0 04 08       	push   $0x804b0cd
 80494ce:	e8 8d fb ff ff       	call   8049060 <printf@plt>
 80494d3:	83 c4 10             	add    $0x10,%esp
 80494d6:	83 ec 0c             	sub    $0xc,%esp
 80494d9:	6a 00                	push   $0x0
 80494db:	e8 50 fc ff ff       	call   8049130 <exit@plt>

080494e0 <eval2equal>:
 80494e0:	55                   	push   %ebp
 80494e1:	89 e5                	mov    %esp,%ebp
 80494e3:	81 ec b8 00 00 00    	sub    $0xb8,%esp
 80494e9:	e8 42 fd ff ff       	call   8049230 <random@plt>
 80494ee:	89 c1                	mov    %eax,%ecx
 80494f0:	ba fd b0 48 19       	mov    $0x1948b0fd,%edx
 80494f5:	89 c8                	mov    %ecx,%eax
 80494f7:	f7 ea                	imul   %edx
 80494f9:	c1 fa 04             	sar    $0x4,%edx
 80494fc:	89 c8                	mov    %ecx,%eax
 80494fe:	c1 f8 1f             	sar    $0x1f,%eax
 8049501:	29 c2                	sub    %eax,%edx
 8049503:	89 d0                	mov    %edx,%eax
 8049505:	69 c0 a2 00 00 00    	imul   $0xa2,%eax,%eax
 804950b:	29 c1                	sub    %eax,%ecx
 804950d:	89 c8                	mov    %ecx,%eax
 804950f:	89 c2                	mov    %eax,%edx
 8049511:	8d 85 48 ff ff ff    	lea    -0xb8(%ebp),%eax
 8049517:	01 d0                	add    %edx,%eax
 8049519:	89 45 f4             	mov    %eax,-0xc(%ebp)
 804951c:	83 ec 04             	sub    $0x4,%esp
 804951f:	ff 75 0c             	pushl  0xc(%ebp)
 8049522:	68 eb b0 04 08       	push   $0x804b0eb
 8049527:	ff 75 f4             	pushl  -0xc(%ebp)
 804952a:	e8 d1 fc ff ff       	call   8049200 <sprintf@plt>
 804952f:	83 c4 10             	add    $0x10,%esp
 8049532:	83 ec 04             	sub    $0x4,%esp
 8049535:	6a 09                	push   $0x9
 8049537:	ff 75 f4             	pushl  -0xc(%ebp)
 804953a:	ff 75 08             	pushl  0x8(%ebp)
 804953d:	e8 6e fb ff ff       	call   80490b0 <memcmp@plt>
 8049542:	83 c4 10             	add    $0x10,%esp
 8049545:	85 c0                	test   %eax,%eax
 8049547:	0f 94 c0             	sete   %al
 804954a:	0f b6 c0             	movzbl %al,%eax
 804954d:	c9                   	leave  
 804954e:	c3                   	ret    

0804954f <rumble>:
 804954f:	55                   	push   %ebp
 8049550:	89 e5                	mov    %esp,%ebp
 8049552:	83 ec 08             	sub    $0x8,%esp
 8049555:	a1 60 d2 04 08       	mov    0x804d260,%eax
 804955a:	83 ec 08             	sub    $0x8,%esp
 804955d:	50                   	push   %eax
 804955e:	ff 75 08             	pushl  0x8(%ebp)
 8049561:	e8 7a ff ff ff       	call   80494e0 <eval2equal>
 8049566:	83 c4 10             	add    $0x10,%esp
 8049569:	85 c0                	test   %eax,%eax
 804956b:	74 22                	je     804958f <rumble+0x40>
 804956d:	83 ec 08             	sub    $0x8,%esp
 8049570:	ff 75 08             	pushl  0x8(%ebp)
 8049573:	68 f0 b0 04 08       	push   $0x804b0f0
 8049578:	e8 e3 fa ff ff       	call   8049060 <printf@plt>
 804957d:	83 c4 10             	add    $0x10,%esp
 8049580:	83 ec 0c             	sub    $0xc,%esp
 8049583:	6a 03                	push   $0x3
 8049585:	e8 6c 08 00 00       	call   8049df6 <validate>
 804958a:	83 c4 10             	add    $0x10,%esp
 804958d:	eb 13                	jmp    80495a2 <rumble+0x53>
 804958f:	83 ec 08             	sub    $0x8,%esp
 8049592:	ff 75 08             	pushl  0x8(%ebp)
 8049595:	68 14 b1 04 08       	push   $0x804b114
 804959a:	e8 c1 fa ff ff       	call   8049060 <printf@plt>
 804959f:	83 c4 10             	add    $0x10,%esp
 80495a2:	83 ec 0c             	sub    $0xc,%esp
 80495a5:	6a 00                	push   $0x0
 80495a7:	e8 84 fb ff ff       	call   8049130 <exit@plt>

080495ac <test>:
 80495ac:	55                   	push   %ebp
 80495ad:	89 e5                	mov    %esp,%ebp
 80495af:	83 ec 18             	sub    $0x18,%esp
 80495b2:	e8 4c 04 00 00       	call   8049a03 <uniqueval>
 80495b7:	89 45 f0             	mov    %eax,-0x10(%ebp)
 80495ba:	e8 ba 06 00 00       	call   8049c79 <getbuf>
 80495bf:	89 45 f4             	mov    %eax,-0xc(%ebp)
 80495c2:	e8 3c 04 00 00       	call   8049a03 <uniqueval>
 80495c7:	89 c2                	mov    %eax,%edx
 80495c9:	8b 45 f0             	mov    -0x10(%ebp),%eax
 80495cc:	39 c2                	cmp    %eax,%edx
 80495ce:	74 12                	je     80495e2 <test+0x36>
 80495d0:	83 ec 0c             	sub    $0xc,%esp
 80495d3:	68 38 b1 04 08       	push   $0x804b138
 80495d8:	e8 43 fb ff ff       	call   8049120 <puts@plt>
 80495dd:	83 c4 10             	add    $0x10,%esp
 80495e0:	eb 41                	jmp    8049623 <test+0x77>
 80495e2:	8b 55 f4             	mov    -0xc(%ebp),%edx
 80495e5:	a1 60 d2 04 08       	mov    0x804d260,%eax
 80495ea:	39 c2                	cmp    %eax,%edx
 80495ec:	75 22                	jne    8049610 <test+0x64>
 80495ee:	83 ec 08             	sub    $0x8,%esp
 80495f1:	ff 75 f4             	pushl  -0xc(%ebp)
 80495f4:	68 61 b1 04 08       	push   $0x804b161
 80495f9:	e8 62 fa ff ff       	call   8049060 <printf@plt>
 80495fe:	83 c4 10             	add    $0x10,%esp
 8049601:	83 ec 0c             	sub    $0xc,%esp
 8049604:	6a 04                	push   $0x4
 8049606:	e8 eb 07 00 00       	call   8049df6 <validate>
 804960b:	83 c4 10             	add    $0x10,%esp
 804960e:	eb 13                	jmp    8049623 <test+0x77>
 8049610:	83 ec 08             	sub    $0x8,%esp
 8049613:	ff 75 f4             	pushl  -0xc(%ebp)
 8049616:	68 7e b1 04 08       	push   $0x804b17e
 804961b:	e8 40 fa ff ff       	call   8049060 <printf@plt>
 8049620:	83 c4 10             	add    $0x10,%esp
 8049623:	90                   	nop
 8049624:	c9                   	leave  
 8049625:	c3                   	ret    

08049626 <testn>:
 8049626:	55                   	push   %ebp
 8049627:	89 e5                	mov    %esp,%ebp
 8049629:	83 ec 28             	sub    $0x28,%esp
 804962c:	e8 d2 03 00 00       	call   8049a03 <uniqueval>
 8049631:	89 45 e0             	mov    %eax,-0x20(%ebp)
 8049634:	e8 5c 06 00 00       	call   8049c95 <getbufn>
 8049639:	89 45 f4             	mov    %eax,-0xc(%ebp)
 804963c:	e8 c2 03 00 00       	call   8049a03 <uniqueval>
 8049641:	89 c2                	mov    %eax,%edx
 8049643:	8b 45 e0             	mov    -0x20(%ebp),%eax
 8049646:	39 c2                	cmp    %eax,%edx
 8049648:	74 12                	je     804965c <testn+0x36>
 804964a:	83 ec 0c             	sub    $0xc,%esp
 804964d:	68 38 b1 04 08       	push   $0x804b138
 8049652:	e8 c9 fa ff ff       	call   8049120 <puts@plt>
 8049657:	83 c4 10             	add    $0x10,%esp
 804965a:	eb 41                	jmp    804969d <testn+0x77>
 804965c:	8b 55 f4             	mov    -0xc(%ebp),%edx
 804965f:	a1 60 d2 04 08       	mov    0x804d260,%eax
 8049664:	39 c2                	cmp    %eax,%edx
 8049666:	75 22                	jne    804968a <testn+0x64>
 8049668:	83 ec 08             	sub    $0x8,%esp
 804966b:	ff 75 f4             	pushl  -0xc(%ebp)
 804966e:	68 9c b1 04 08       	push   $0x804b19c
 8049673:	e8 e8 f9 ff ff       	call   8049060 <printf@plt>
 8049678:	83 c4 10             	add    $0x10,%esp
 804967b:	83 ec 0c             	sub    $0xc,%esp
 804967e:	6a 05                	push   $0x5
 8049680:	e8 71 07 00 00       	call   8049df6 <validate>
 8049685:	83 c4 10             	add    $0x10,%esp
 8049688:	eb 13                	jmp    804969d <testn+0x77>
 804968a:	83 ec 08             	sub    $0x8,%esp
 804968d:	ff 75 f4             	pushl  -0xc(%ebp)
 8049690:	68 bc b1 04 08       	push   $0x804b1bc
 8049695:	e8 c6 f9 ff ff       	call   8049060 <printf@plt>
 804969a:	83 c4 10             	add    $0x10,%esp
 804969d:	90                   	nop
 804969e:	c9                   	leave  
 804969f:	c3                   	ret    

080496a0 <save_char>:
 80496a0:	55                   	push   %ebp
 80496a1:	89 e5                	mov    %esp,%ebp
 80496a3:	83 ec 04             	sub    $0x4,%esp
 80496a6:	8b 45 08             	mov    0x8(%ebp),%eax
 80496a9:	88 45 fc             	mov    %al,-0x4(%ebp)
 80496ac:	a1 6c d2 04 08       	mov    0x804d26c,%eax
 80496b1:	3d ff 03 00 00       	cmp    $0x3ff,%eax
 80496b6:	7f 70                	jg     8049728 <save_char+0x88>
 80496b8:	0f b6 45 fc          	movzbl -0x4(%ebp),%eax
 80496bc:	c0 f8 04             	sar    $0x4,%al
 80496bf:	0f be c0             	movsbl %al,%eax
 80496c2:	83 e0 0f             	and    $0xf,%eax
 80496c5:	89 c1                	mov    %eax,%ecx
 80496c7:	8b 15 6c d2 04 08    	mov    0x804d26c,%edx
 80496cd:	89 d0                	mov    %edx,%eax
 80496cf:	01 c0                	add    %eax,%eax
 80496d1:	01 c2                	add    %eax,%edx
 80496d3:	0f b6 81 f8 d1 04 08 	movzbl 0x804d1f8(%ecx),%eax
 80496da:	88 82 a0 e2 04 08    	mov    %al,0x804e2a0(%edx)
 80496e0:	0f be 45 fc          	movsbl -0x4(%ebp),%eax
 80496e4:	83 e0 0f             	and    $0xf,%eax
 80496e7:	89 c1                	mov    %eax,%ecx
 80496e9:	8b 15 6c d2 04 08    	mov    0x804d26c,%edx
 80496ef:	89 d0                	mov    %edx,%eax
 80496f1:	01 c0                	add    %eax,%eax
 80496f3:	01 d0                	add    %edx,%eax
 80496f5:	8d 50 01             	lea    0x1(%eax),%edx
 80496f8:	0f b6 81 f8 d1 04 08 	movzbl 0x804d1f8(%ecx),%eax
 80496ff:	88 82 a0 e2 04 08    	mov    %al,0x804e2a0(%edx)
 8049705:	8b 15 6c d2 04 08    	mov    0x804d26c,%edx
 804970b:	89 d0                	mov    %edx,%eax
 804970d:	01 c0                	add    %eax,%eax
 804970f:	01 d0                	add    %edx,%eax
 8049711:	83 c0 02             	add    $0x2,%eax
 8049714:	c6 80 a0 e2 04 08 20 	movb   $0x20,0x804e2a0(%eax)
 804971b:	a1 6c d2 04 08       	mov    0x804d26c,%eax
 8049720:	83 c0 01             	add    $0x1,%eax
 8049723:	a3 6c d2 04 08       	mov    %eax,0x804d26c
 8049728:	90                   	nop
 8049729:	c9                   	leave  
 804972a:	c3                   	ret    

0804972b <save_term>:
 804972b:	55                   	push   %ebp
 804972c:	89 e5                	mov    %esp,%ebp
 804972e:	8b 15 6c d2 04 08    	mov    0x804d26c,%edx
 8049734:	89 d0                	mov    %edx,%eax
 8049736:	01 c0                	add    %eax,%eax
 8049738:	01 d0                	add    %edx,%eax
 804973a:	c6 80 a0 e2 04 08 00 	movb   $0x0,0x804e2a0(%eax)
 8049741:	90                   	nop
 8049742:	5d                   	pop    %ebp
 8049743:	c3                   	ret    

08049744 <Gets>:
 8049744:	55                   	push   %ebp
 8049745:	89 e5                	mov    %esp,%ebp
 8049747:	83 ec 18             	sub    $0x18,%esp
 804974a:	8b 45 08             	mov    0x8(%ebp),%eax
 804974d:	89 45 f4             	mov    %eax,-0xc(%ebp)
 8049750:	c7 05 6c d2 04 08 00 	movl   $0x0,0x804d26c
 8049757:	00 00 00 
 804975a:	eb 1d                	jmp    8049779 <Gets+0x35>
 804975c:	8b 45 f4             	mov    -0xc(%ebp),%eax
 804975f:	8d 50 01             	lea    0x1(%eax),%edx
 8049762:	89 55 f4             	mov    %edx,-0xc(%ebp)
 8049765:	8b 55 f0             	mov    -0x10(%ebp),%edx
 8049768:	88 10                	mov    %dl,(%eax)
 804976a:	8b 45 f0             	mov    -0x10(%ebp),%eax
 804976d:	0f be c0             	movsbl %al,%eax
 8049770:	50                   	push   %eax
 8049771:	e8 2a ff ff ff       	call   80496a0 <save_char>
 8049776:	83 c4 04             	add    $0x4,%esp
 8049779:	a1 5c d2 04 08       	mov    0x804d25c,%eax
 804977e:	83 ec 0c             	sub    $0xc,%esp
 8049781:	50                   	push   %eax
 8049782:	e8 99 fa ff ff       	call   8049220 <getc@plt>
 8049787:	83 c4 10             	add    $0x10,%esp
 804978a:	89 45 f0             	mov    %eax,-0x10(%ebp)
 804978d:	83 7d f0 ff          	cmpl   $0xffffffff,-0x10(%ebp)
 8049791:	74 06                	je     8049799 <Gets+0x55>
 8049793:	83 7d f0 0a          	cmpl   $0xa,-0x10(%ebp)
 8049797:	75 c3                	jne    804975c <Gets+0x18>
 8049799:	8b 45 f4             	mov    -0xc(%ebp),%eax
 804979c:	8d 50 01             	lea    0x1(%eax),%edx
 804979f:	89 55 f4             	mov    %edx,-0xc(%ebp)
 80497a2:	c6 00 00             	movb   $0x0,(%eax)
 80497a5:	e8 81 ff ff ff       	call   804972b <save_term>
 80497aa:	8b 45 08             	mov    0x8(%ebp),%eax
 80497ad:	c9                   	leave  
 80497ae:	c3                   	ret    

080497af <usage>:
 80497af:	55                   	push   %ebp
 80497b0:	89 e5                	mov    %esp,%ebp
 80497b2:	83 ec 08             	sub    $0x8,%esp
 80497b5:	83 ec 08             	sub    $0x8,%esp
 80497b8:	ff 75 08             	pushl  0x8(%ebp)
 80497bb:	68 d8 b1 04 08       	push   $0x804b1d8
 80497c0:	e8 9b f8 ff ff       	call   8049060 <printf@plt>
 80497c5:	83 c4 10             	add    $0x10,%esp
 80497c8:	83 ec 0c             	sub    $0xc,%esp
 80497cb:	68 f6 b1 04 08       	push   $0x804b1f6
 80497d0:	e8 4b f9 ff ff       	call   8049120 <puts@plt>
 80497d5:	83 c4 10             	add    $0x10,%esp
 80497d8:	83 ec 0c             	sub    $0xc,%esp
 80497db:	68 0c b2 04 08       	push   $0x804b20c
 80497e0:	e8 3b f9 ff ff       	call   8049120 <puts@plt>
 80497e5:	83 c4 10             	add    $0x10,%esp
 80497e8:	83 ec 0c             	sub    $0xc,%esp
 80497eb:	68 28 b2 04 08       	push   $0x804b228
 80497f0:	e8 2b f9 ff ff       	call   8049120 <puts@plt>
 80497f5:	83 c4 10             	add    $0x10,%esp
 80497f8:	83 ec 0c             	sub    $0xc,%esp
 80497fb:	68 64 b2 04 08       	push   $0x804b264
 8049800:	e8 1b f9 ff ff       	call   8049120 <puts@plt>
 8049805:	83 c4 10             	add    $0x10,%esp
 8049808:	83 ec 0c             	sub    $0xc,%esp
 804980b:	6a 00                	push   $0x0
 804980d:	e8 1e f9 ff ff       	call   8049130 <exit@plt>

08049812 <bushandler>:
 8049812:	55                   	push   %ebp
 8049813:	89 e5                	mov    %esp,%ebp
 8049815:	83 ec 08             	sub    $0x8,%esp
 8049818:	83 ec 0c             	sub    $0xc,%esp
 804981b:	68 8c b2 04 08       	push   $0x804b28c
 8049820:	e8 fb f8 ff ff       	call   8049120 <puts@plt>
 8049825:	83 c4 10             	add    $0x10,%esp
 8049828:	83 ec 0c             	sub    $0xc,%esp
 804982b:	68 ac b2 04 08       	push   $0x804b2ac
 8049830:	e8 eb f8 ff ff       	call   8049120 <puts@plt>
 8049835:	83 c4 10             	add    $0x10,%esp
 8049838:	83 ec 0c             	sub    $0xc,%esp
 804983b:	6a 00                	push   $0x0
 804983d:	e8 ee f8 ff ff       	call   8049130 <exit@plt>

08049842 <seghandler>:
 8049842:	55                   	push   %ebp
 8049843:	89 e5                	mov    %esp,%ebp
 8049845:	83 ec 08             	sub    $0x8,%esp
 8049848:	83 ec 0c             	sub    $0xc,%esp
 804984b:	68 c4 b2 04 08       	push   $0x804b2c4
 8049850:	e8 cb f8 ff ff       	call   8049120 <puts@plt>
 8049855:	83 c4 10             	add    $0x10,%esp
 8049858:	83 ec 0c             	sub    $0xc,%esp
 804985b:	68 ac b2 04 08       	push   $0x804b2ac
 8049860:	e8 bb f8 ff ff       	call   8049120 <puts@plt>
 8049865:	83 c4 10             	add    $0x10,%esp
 8049868:	83 ec 0c             	sub    $0xc,%esp
 804986b:	6a 00                	push   $0x0
 804986d:	e8 be f8 ff ff       	call   8049130 <exit@plt>

08049872 <illegalhandler>:
 8049872:	55                   	push   %ebp
 8049873:	89 e5                	mov    %esp,%ebp
 8049875:	83 ec 08             	sub    $0x8,%esp
 8049878:	83 ec 0c             	sub    $0xc,%esp
 804987b:	68 ec b2 04 08       	push   $0x804b2ec
 8049880:	e8 9b f8 ff ff       	call   8049120 <puts@plt>
 8049885:	83 c4 10             	add    $0x10,%esp
 8049888:	83 ec 0c             	sub    $0xc,%esp
 804988b:	68 ac b2 04 08       	push   $0x804b2ac
 8049890:	e8 8b f8 ff ff       	call   8049120 <puts@plt>
 8049895:	83 c4 10             	add    $0x10,%esp
 8049898:	83 ec 0c             	sub    $0xc,%esp
 804989b:	6a 00                	push   $0x0
 804989d:	e8 8e f8 ff ff       	call   8049130 <exit@plt>

080498a2 <launch>:
 80498a2:	55                   	push   %ebp
 80498a3:	89 e5                	mov    %esp,%ebp
 80498a5:	83 ec 58             	sub    $0x58,%esp
 80498a8:	c7 45 f4 00 00 00 00 	movl   $0x0,-0xc(%ebp)
 80498af:	8d 45 b0             	lea    -0x50(%ebp),%eax
 80498b2:	25 f0 3f 00 00       	and    $0x3ff0,%eax
 80498b7:	89 45 f4             	mov    %eax,-0xc(%ebp)
 80498ba:	8b 55 0c             	mov    0xc(%ebp),%edx
 80498bd:	8b 45 f4             	mov    -0xc(%ebp),%eax
 80498c0:	01 d0                	add    %edx,%eax
 80498c2:	8d 50 0c             	lea    0xc(%eax),%edx
 80498c5:	b8 10 00 00 00       	mov    $0x10,%eax
 80498ca:	83 e8 01             	sub    $0x1,%eax
 80498cd:	01 d0                	add    %edx,%eax
 80498cf:	b9 10 00 00 00       	mov    $0x10,%ecx
 80498d4:	ba 00 00 00 00       	mov    $0x0,%edx
 80498d9:	f7 f1                	div    %ecx
 80498db:	6b c0 10             	imul   $0x10,%eax,%eax
 80498de:	29 c4                	sub    %eax,%esp
 80498e0:	89 e0                	mov    %esp,%eax
 80498e2:	83 c0 0f             	add    $0xf,%eax
 80498e5:	c1 e8 04             	shr    $0x4,%eax
 80498e8:	c1 e0 04             	shl    $0x4,%eax
 80498eb:	89 45 f0             	mov    %eax,-0x10(%ebp)
 80498ee:	83 ec 04             	sub    $0x4,%esp
 80498f1:	ff 75 f4             	pushl  -0xc(%ebp)
 80498f4:	68 f4 00 00 00       	push   $0xf4
 80498f9:	ff 75 f0             	pushl  -0x10(%ebp)
 80498fc:	e8 bf f8 ff ff       	call   80491c0 <memset@plt>
 8049901:	83 c4 10             	add    $0x10,%esp
 8049904:	83 ec 0c             	sub    $0xc,%esp
 8049907:	68 17 b3 04 08       	push   $0x804b317
 804990c:	e8 4f f7 ff ff       	call   8049060 <printf@plt>
 8049911:	83 c4 10             	add    $0x10,%esp
 8049914:	83 7d 08 00          	cmpl   $0x0,0x8(%ebp)
 8049918:	74 07                	je     8049921 <launch+0x7f>
 804991a:	e8 07 fd ff ff       	call   8049626 <testn>
 804991f:	eb 05                	jmp    8049926 <launch+0x84>
 8049921:	e8 86 fc ff ff       	call   80495ac <test>
 8049926:	a1 64 d2 04 08       	mov    0x804d264,%eax
 804992b:	85 c0                	test   %eax,%eax
 804992d:	75 1a                	jne    8049949 <launch+0xa7>
 804992f:	83 ec 0c             	sub    $0xc,%esp
 8049932:	68 ac b2 04 08       	push   $0x804b2ac
 8049937:	e8 e4 f7 ff ff       	call   8049120 <puts@plt>
 804993c:	83 c4 10             	add    $0x10,%esp
 804993f:	c7 05 64 d2 04 08 00 	movl   $0x0,0x804d264
 8049946:	00 00 00 
 8049949:	90                   	nop
 804994a:	c9                   	leave  
 804994b:	c3                   	ret    

0804994c <launcher>:
 804994c:	55                   	push   %ebp
 804994d:	89 e5                	mov    %esp,%ebp
 804994f:	83 ec 18             	sub    $0x18,%esp
 8049952:	8b 45 08             	mov    0x8(%ebp),%eax
 8049955:	a3 70 d2 04 08       	mov    %eax,0x804d270
 804995a:	8b 45 0c             	mov    0xc(%ebp),%eax
 804995d:	a3 74 d2 04 08       	mov    %eax,0x804d274
 8049962:	83 ec 08             	sub    $0x8,%esp
 8049965:	6a 00                	push   $0x0
 8049967:	6a 00                	push   $0x0
 8049969:	68 32 01 00 00       	push   $0x132
 804996e:	6a 07                	push   $0x7
 8049970:	68 00 00 10 00       	push   $0x100000
 8049975:	68 00 00 59 55       	push   $0x55590000
 804997a:	e8 d1 f7 ff ff       	call   8049150 <mmap@plt>
 804997f:	83 c4 20             	add    $0x20,%esp
 8049982:	89 45 f4             	mov    %eax,-0xc(%ebp)
 8049985:	81 7d f4 00 00 59 55 	cmpl   $0x55590000,-0xc(%ebp)
 804998c:	74 21                	je     80499af <launcher+0x63>
 804998e:	a1 20 d2 04 08       	mov    0x804d220,%eax
 8049993:	50                   	push   %eax
 8049994:	6a 47                	push   $0x47
 8049996:	6a 01                	push   $0x1
 8049998:	68 24 b3 04 08       	push   $0x804b324
 804999d:	e8 3e f7 ff ff       	call   80490e0 <fwrite@plt>
 80499a2:	83 c4 10             	add    $0x10,%esp
 80499a5:	83 ec 0c             	sub    $0xc,%esp
 80499a8:	6a 01                	push   $0x1
 80499aa:	e8 81 f7 ff ff       	call   8049130 <exit@plt>
 80499af:	8b 45 f4             	mov    -0xc(%ebp),%eax
 80499b2:	05 f8 ff 0f 00       	add    $0xffff8,%eax
 80499b7:	a3 80 e2 04 08       	mov    %eax,0x804e280
 80499bc:	8b 15 80 e2 04 08    	mov    0x804e280,%edx
 80499c2:	89 e0                	mov    %esp,%eax
 80499c4:	89 d4                	mov    %edx,%esp
 80499c6:	89 c2                	mov    %eax,%edx
 80499c8:	89 15 78 d2 04 08    	mov    %edx,0x804d278
 80499ce:	8b 15 74 d2 04 08    	mov    0x804d274,%edx
 80499d4:	a1 70 d2 04 08       	mov    0x804d270,%eax
 80499d9:	83 ec 08             	sub    $0x8,%esp
 80499dc:	52                   	push   %edx
 80499dd:	50                   	push   %eax
 80499de:	e8 bf fe ff ff       	call   80498a2 <launch>
 80499e3:	83 c4 10             	add    $0x10,%esp
 80499e6:	a1 78 d2 04 08       	mov    0x804d278,%eax
 80499eb:	89 c4                	mov    %eax,%esp
 80499ed:	83 ec 08             	sub    $0x8,%esp
 80499f0:	68 00 00 10 00       	push   $0x100000
 80499f5:	ff 75 f4             	pushl  -0xc(%ebp)
 80499f8:	e8 f3 f7 ff ff       	call   80491f0 <munmap@plt>
 80499fd:	83 c4 10             	add    $0x10,%esp
 8049a00:	90                   	nop
 8049a01:	c9                   	leave  
 8049a02:	c3                   	ret    

08049a03 <uniqueval>:
 8049a03:	55                   	push   %ebp
 8049a04:	89 e5                	mov    %esp,%ebp
 8049a06:	83 ec 08             	sub    $0x8,%esp
 8049a09:	e8 f2 f6 ff ff       	call   8049100 <getpid@plt>
 8049a0e:	83 ec 0c             	sub    $0xc,%esp
 8049a11:	50                   	push   %eax
 8049a12:	e8 39 f6 ff ff       	call   8049050 <srandom@plt>
 8049a17:	83 c4 10             	add    $0x10,%esp
 8049a1a:	e8 11 f8 ff ff       	call   8049230 <random@plt>
 8049a1f:	c9                   	leave  
 8049a20:	c3                   	ret    

08049a21 <main>:
 8049a21:	8d 4c 24 04          	lea    0x4(%esp),%ecx
 8049a25:	83 e4 f0             	and    $0xfffffff0,%esp
 8049a28:	ff 71 fc             	pushl  -0x4(%ecx)
 8049a2b:	55                   	push   %ebp
 8049a2c:	89 e5                	mov    %esp,%ebp
 8049a2e:	53                   	push   %ebx
 8049a2f:	51                   	push   %ecx
 8049a30:	83 ec 20             	sub    $0x20,%esp
 8049a33:	89 cb                	mov    %ecx,%ebx
 8049a35:	c7 45 e8 00 00 00 00 	movl   $0x0,-0x18(%ebp)
 8049a3c:	c7 45 f4 00 00 00 00 	movl   $0x0,-0xc(%ebp)
 8049a43:	c7 45 ec 01 00 00 00 	movl   $0x1,-0x14(%ebp)
 8049a4a:	83 ec 08             	sub    $0x8,%esp
 8049a4d:	68 42 98 04 08       	push   $0x8049842
 8049a52:	6a 0b                	push   $0xb
 8049a54:	e8 47 f6 ff ff       	call   80490a0 <signal@plt>
 8049a59:	83 c4 10             	add    $0x10,%esp
 8049a5c:	83 ec 08             	sub    $0x8,%esp
 8049a5f:	68 12 98 04 08       	push   $0x8049812
 8049a64:	6a 07                	push   $0x7
 8049a66:	e8 35 f6 ff ff       	call   80490a0 <signal@plt>
 8049a6b:	83 c4 10             	add    $0x10,%esp
 8049a6e:	83 ec 08             	sub    $0x8,%esp
 8049a71:	68 72 98 04 08       	push   $0x8049872
 8049a76:	6a 04                	push   $0x4
 8049a78:	e8 23 f6 ff ff       	call   80490a0 <signal@plt>
 8049a7d:	83 c4 10             	add    $0x10,%esp
 8049a80:	a1 40 d2 04 08       	mov    0x804d240,%eax
 8049a85:	a3 5c d2 04 08       	mov    %eax,0x804d25c
 8049a8a:	e9 a3 00 00 00       	jmp    8049b32 <main+0x111>
 8049a8f:	0f be 45 e7          	movsbl -0x19(%ebp),%eax
 8049a93:	83 e8 67             	sub    $0x67,%eax
 8049a96:	83 f8 0e             	cmp    $0xe,%eax
 8049a99:	0f 87 82 00 00 00    	ja     8049b21 <main+0x100>
 8049a9f:	8b 04 85 e4 b3 04 08 	mov    0x804b3e4(,%eax,4),%eax
 8049aa6:	ff e0                	jmp    *%eax
 8049aa8:	8b 43 04             	mov    0x4(%ebx),%eax
 8049aab:	8b 00                	mov    (%eax),%eax
 8049aad:	83 ec 0c             	sub    $0xc,%esp
 8049ab0:	50                   	push   %eax
 8049ab1:	e8 f9 fc ff ff       	call   80497af <usage>
 8049ab6:	83 c4 10             	add    $0x10,%esp
 8049ab9:	eb 77                	jmp    8049b32 <main+0x111>
 8049abb:	c7 45 f4 01 00 00 00 	movl   $0x1,-0xc(%ebp)
 8049ac2:	c7 45 ec 05 00 00 00 	movl   $0x5,-0x14(%ebp)
 8049ac9:	eb 67                	jmp    8049b32 <main+0x111>
 8049acb:	a1 48 d2 04 08       	mov    0x804d248,%eax
 8049ad0:	83 ec 0c             	sub    $0xc,%esp
 8049ad3:	50                   	push   %eax
 8049ad4:	e8 a7 f5 ff ff       	call   8049080 <strdup@plt>
 8049ad9:	83 c4 10             	add    $0x10,%esp
 8049adc:	a3 50 d2 04 08       	mov    %eax,0x804d250
 8049ae1:	a1 50 d2 04 08       	mov    0x804d250,%eax
 8049ae6:	83 ec 0c             	sub    $0xc,%esp
 8049ae9:	50                   	push   %eax
 8049aea:	e8 d3 10 00 00       	call   804abc2 <gencookie>
 8049aef:	83 c4 10             	add    $0x10,%esp
 8049af2:	a3 60 d2 04 08       	mov    %eax,0x804d260
 8049af7:	eb 39                	jmp    8049b32 <main+0x111>
 8049af9:	83 ec 0c             	sub    $0xc,%esp
 8049afc:	68 6c b3 04 08       	push   $0x804b36c
 8049b01:	e8 1a f6 ff ff       	call   8049120 <puts@plt>
 8049b06:	83 c4 10             	add    $0x10,%esp
 8049b09:	c7 05 54 d2 04 08 00 	movl   $0x0,0x804d254
 8049b10:	00 00 00 
 8049b13:	eb 1d                	jmp    8049b32 <main+0x111>
 8049b15:	c7 05 58 d2 04 08 01 	movl   $0x1,0x804d258
 8049b1c:	00 00 00 
 8049b1f:	eb 11                	jmp    8049b32 <main+0x111>
 8049b21:	8b 43 04             	mov    0x4(%ebx),%eax
 8049b24:	8b 00                	mov    (%eax),%eax
 8049b26:	83 ec 0c             	sub    $0xc,%esp
 8049b29:	50                   	push   %eax
 8049b2a:	e8 80 fc ff ff       	call   80497af <usage>
 8049b2f:	83 c4 10             	add    $0x10,%esp
 8049b32:	83 ec 04             	sub    $0x4,%esp
 8049b35:	68 94 b3 04 08       	push   $0x804b394
 8049b3a:	ff 73 04             	pushl  0x4(%ebx)
 8049b3d:	ff 33                	pushl  (%ebx)
 8049b3f:	e8 4c f6 ff ff       	call   8049190 <getopt@plt>
 8049b44:	83 c4 10             	add    $0x10,%esp
 8049b47:	88 45 e7             	mov    %al,-0x19(%ebp)
 8049b4a:	80 7d e7 ff          	cmpb   $0xff,-0x19(%ebp)
 8049b4e:	0f 85 3b ff ff ff    	jne    8049a8f <main+0x6e>
 8049b54:	a1 50 d2 04 08       	mov    0x804d250,%eax
 8049b59:	85 c0                	test   %eax,%eax
 8049b5b:	75 27                	jne    8049b84 <main+0x163>
 8049b5d:	8b 43 04             	mov    0x4(%ebx),%eax
 8049b60:	8b 00                	mov    (%eax),%eax
 8049b62:	83 ec 08             	sub    $0x8,%esp
 8049b65:	50                   	push   %eax
 8049b66:	68 9c b3 04 08       	push   $0x804b39c
 8049b6b:	e8 f0 f4 ff ff       	call   8049060 <printf@plt>
 8049b70:	83 c4 10             	add    $0x10,%esp
 8049b73:	8b 43 04             	mov    0x4(%ebx),%eax
 8049b76:	8b 00                	mov    (%eax),%eax
 8049b78:	83 ec 0c             	sub    $0xc,%esp
 8049b7b:	50                   	push   %eax
 8049b7c:	e8 2e fc ff ff       	call   80497af <usage>
 8049b81:	83 c4 10             	add    $0x10,%esp
 8049b84:	e8 2e 01 00 00       	call   8049cb7 <initialize_bomb>
 8049b89:	a1 50 d2 04 08       	mov    0x804d250,%eax
 8049b8e:	83 ec 08             	sub    $0x8,%esp
 8049b91:	50                   	push   %eax
 8049b92:	68 c8 b3 04 08       	push   $0x804b3c8
 8049b97:	e8 c4 f4 ff ff       	call   8049060 <printf@plt>
 8049b9c:	83 c4 10             	add    $0x10,%esp
 8049b9f:	a1 60 d2 04 08       	mov    0x804d260,%eax
 8049ba4:	83 ec 08             	sub    $0x8,%esp
 8049ba7:	50                   	push   %eax
 8049ba8:	68 d4 b3 04 08       	push   $0x804b3d4
 8049bad:	e8 ae f4 ff ff       	call   8049060 <printf@plt>
 8049bb2:	83 c4 10             	add    $0x10,%esp
 8049bb5:	a1 60 d2 04 08       	mov    0x804d260,%eax
 8049bba:	83 ec 0c             	sub    $0xc,%esp
 8049bbd:	50                   	push   %eax
 8049bbe:	e8 8d f4 ff ff       	call   8049050 <srandom@plt>
 8049bc3:	83 c4 10             	add    $0x10,%esp
 8049bc6:	e8 65 f6 ff ff       	call   8049230 <random@plt>
 8049bcb:	25 f0 0f 00 00       	and    $0xff0,%eax
 8049bd0:	05 00 01 00 00       	add    $0x100,%eax
 8049bd5:	89 45 e8             	mov    %eax,-0x18(%ebp)
 8049bd8:	8b 45 ec             	mov    -0x14(%ebp),%eax
 8049bdb:	83 ec 08             	sub    $0x8,%esp
 8049bde:	6a 04                	push   $0x4
 8049be0:	50                   	push   %eax
 8049be1:	e8 8a f6 ff ff       	call   8049270 <calloc@plt>
 8049be6:	83 c4 10             	add    $0x10,%esp
 8049be9:	89 45 e0             	mov    %eax,-0x20(%ebp)
 8049bec:	8b 45 e0             	mov    -0x20(%ebp),%eax
 8049bef:	c7 00 00 00 00 00    	movl   $0x0,(%eax)
 8049bf5:	c7 45 f0 01 00 00 00 	movl   $0x1,-0x10(%ebp)
 8049bfc:	eb 2a                	jmp    8049c28 <main+0x207>
 8049bfe:	e8 2d f6 ff ff       	call   8049230 <random@plt>
 8049c03:	25 f0 00 00 00       	and    $0xf0,%eax
 8049c08:	89 c2                	mov    %eax,%edx
 8049c0a:	8b 45 f0             	mov    -0x10(%ebp),%eax
 8049c0d:	8d 0c 85 00 00 00 00 	lea    0x0(,%eax,4),%ecx
 8049c14:	8b 45 e0             	mov    -0x20(%ebp),%eax
 8049c17:	01 c8                	add    %ecx,%eax
 8049c19:	b9 80 00 00 00       	mov    $0x80,%ecx
 8049c1e:	29 d1                	sub    %edx,%ecx
 8049c20:	89 ca                	mov    %ecx,%edx
 8049c22:	89 10                	mov    %edx,(%eax)
 8049c24:	83 45 f0 01          	addl   $0x1,-0x10(%ebp)
 8049c28:	8b 45 f0             	mov    -0x10(%ebp),%eax
 8049c2b:	3b 45 ec             	cmp    -0x14(%ebp),%eax
 8049c2e:	7c ce                	jl     8049bfe <main+0x1dd>
 8049c30:	c7 45 f0 00 00 00 00 	movl   $0x0,-0x10(%ebp)
 8049c37:	eb 29                	jmp    8049c62 <main+0x241>
 8049c39:	8b 45 f0             	mov    -0x10(%ebp),%eax
 8049c3c:	8d 14 85 00 00 00 00 	lea    0x0(,%eax,4),%edx
 8049c43:	8b 45 e0             	mov    -0x20(%ebp),%eax
 8049c46:	01 d0                	add    %edx,%eax
 8049c48:	8b 10                	mov    (%eax),%edx
 8049c4a:	8b 45 e8             	mov    -0x18(%ebp),%eax
 8049c4d:	01 d0                	add    %edx,%eax
 8049c4f:	83 ec 08             	sub    $0x8,%esp
 8049c52:	50                   	push   %eax
 8049c53:	ff 75 f4             	pushl  -0xc(%ebp)
 8049c56:	e8 f1 fc ff ff       	call   804994c <launcher>
 8049c5b:	83 c4 10             	add    $0x10,%esp
 8049c5e:	83 45 f0 01          	addl   $0x1,-0x10(%ebp)
 8049c62:	8b 45 f0             	mov    -0x10(%ebp),%eax
 8049c65:	3b 45 ec             	cmp    -0x14(%ebp),%eax
 8049c68:	7c cf                	jl     8049c39 <main+0x218>
 8049c6a:	b8 00 00 00 00       	mov    $0x0,%eax
 8049c6f:	8d 65 f8             	lea    -0x8(%ebp),%esp
 8049c72:	59                   	pop    %ecx
 8049c73:	5b                   	pop    %ebx
 8049c74:	5d                   	pop    %ebp
 8049c75:	8d 61 fc             	lea    -0x4(%ecx),%esp
 8049c78:	c3                   	ret    

08049c79 <getbuf>:
 8049c79:	55                   	push   %ebp
 8049c7a:	89 e5                	mov    %esp,%ebp
 8049c7c:	83 ec 58             	sub    $0x58,%esp
 8049c7f:	83 ec 0c             	sub    $0xc,%esp
 8049c82:	8d 45 b1             	lea    -0x4f(%ebp),%eax
 8049c85:	50                   	push   %eax
 8049c86:	e8 b9 fa ff ff       	call   8049744 <Gets>
 8049c8b:	83 c4 10             	add    $0x10,%esp
 8049c8e:	b8 01 00 00 00       	mov    $0x1,%eax
 8049c93:	c9                   	leave  
 8049c94:	c3                   	ret    

08049c95 <getbufn>:
 8049c95:	55                   	push   %ebp
 8049c96:	89 e5                	mov    %esp,%ebp
 8049c98:	81 ec 78 02 00 00    	sub    $0x278,%esp
 8049c9e:	83 ec 0c             	sub    $0xc,%esp
 8049ca1:	8d 85 8e fd ff ff    	lea    -0x272(%ebp),%eax
 8049ca7:	50                   	push   %eax
 8049ca8:	e8 97 fa ff ff       	call   8049744 <Gets>
 8049cad:	83 c4 10             	add    $0x10,%esp
 8049cb0:	b8 01 00 00 00       	mov    $0x1,%eax
 8049cb5:	c9                   	leave  
 8049cb6:	c3                   	ret    

08049cb7 <initialize_bomb>:
 8049cb7:	55                   	push   %ebp
 8049cb8:	89 e5                	mov    %esp,%ebp
 8049cba:	81 ec 18 24 00 00    	sub    $0x2418,%esp
 8049cc0:	c7 45 f0 00 00 00 00 	movl   $0x0,-0x10(%ebp)
 8049cc7:	a1 58 d2 04 08       	mov    0x804d258,%eax
 8049ccc:	85 c0                	test   %eax,%eax
 8049cce:	74 0d                	je     8049cdd <initialize_bomb+0x26>
 8049cd0:	83 ec 0c             	sub    $0xc,%esp
 8049cd3:	6a ff                	push   $0xffffffff
 8049cd5:	e8 ea 0b 00 00       	call   804a8c4 <init_timeout>
 8049cda:	83 c4 10             	add    $0x10,%esp
 8049cdd:	a1 54 d2 04 08       	mov    0x804d254,%eax
 8049ce2:	85 c0                	test   %eax,%eax
 8049ce4:	0f 84 09 01 00 00    	je     8049df3 <initialize_bomb+0x13c>
 8049cea:	83 ec 08             	sub    $0x8,%esp
 8049ced:	68 00 04 00 00       	push   $0x400
 8049cf2:	8d 85 f0 fb ff ff    	lea    -0x410(%ebp),%eax
 8049cf8:	50                   	push   %eax
 8049cf9:	e8 12 f4 ff ff       	call   8049110 <gethostname@plt>
 8049cfe:	83 c4 10             	add    $0x10,%esp
 8049d01:	85 c0                	test   %eax,%eax
 8049d03:	74 1a                	je     8049d1f <initialize_bomb+0x68>
 8049d05:	83 ec 0c             	sub    $0xc,%esp
 8049d08:	68 20 b4 04 08       	push   $0x804b420
 8049d0d:	e8 0e f4 ff ff       	call   8049120 <puts@plt>
 8049d12:	83 c4 10             	add    $0x10,%esp
 8049d15:	83 ec 0c             	sub    $0xc,%esp
 8049d18:	6a 08                	push   $0x8
 8049d1a:	e8 11 f4 ff ff       	call   8049130 <exit@plt>
 8049d1f:	c7 45 f4 00 00 00 00 	movl   $0x0,-0xc(%ebp)
 8049d26:	eb 2e                	jmp    8049d56 <initialize_bomb+0x9f>
 8049d28:	8b 45 f4             	mov    -0xc(%ebp),%eax
 8049d2b:	8b 04 85 80 d2 04 08 	mov    0x804d280(,%eax,4),%eax
 8049d32:	83 ec 08             	sub    $0x8,%esp
 8049d35:	8d 95 f0 fb ff ff    	lea    -0x410(%ebp),%edx
 8049d3b:	52                   	push   %edx
 8049d3c:	50                   	push   %eax
 8049d3d:	e8 5e f4 ff ff       	call   80491a0 <strcasecmp@plt>
 8049d42:	83 c4 10             	add    $0x10,%esp
 8049d45:	85 c0                	test   %eax,%eax
 8049d47:	75 09                	jne    8049d52 <initialize_bomb+0x9b>
 8049d49:	c7 45 f0 01 00 00 00 	movl   $0x1,-0x10(%ebp)
 8049d50:	eb 12                	jmp    8049d64 <initialize_bomb+0xad>
 8049d52:	83 45 f4 01          	addl   $0x1,-0xc(%ebp)
 8049d56:	8b 45 f4             	mov    -0xc(%ebp),%eax
 8049d59:	8b 04 85 80 d2 04 08 	mov    0x804d280(,%eax,4),%eax
 8049d60:	85 c0                	test   %eax,%eax
 8049d62:	75 c4                	jne    8049d28 <initialize_bomb+0x71>
 8049d64:	83 7d f0 00          	cmpl   $0x0,-0x10(%ebp)
 8049d68:	75 52                	jne    8049dbc <initialize_bomb+0x105>
 8049d6a:	83 ec 08             	sub    $0x8,%esp
 8049d6d:	8d 85 f0 fb ff ff    	lea    -0x410(%ebp),%eax
 8049d73:	50                   	push   %eax
 8049d74:	68 58 b4 04 08       	push   $0x804b458
 8049d79:	e8 e2 f2 ff ff       	call   8049060 <printf@plt>
 8049d7e:	83 c4 10             	add    $0x10,%esp
 8049d81:	c7 45 f4 00 00 00 00 	movl   $0x0,-0xc(%ebp)
 8049d88:	eb 1a                	jmp    8049da4 <initialize_bomb+0xed>
 8049d8a:	8b 45 f4             	mov    -0xc(%ebp),%eax
 8049d8d:	8b 04 85 80 d2 04 08 	mov    0x804d280(,%eax,4),%eax
 8049d94:	83 ec 0c             	sub    $0xc,%esp
 8049d97:	50                   	push   %eax
 8049d98:	e8 83 f3 ff ff       	call   8049120 <puts@plt>
 8049d9d:	83 c4 10             	add    $0x10,%esp
 8049da0:	83 45 f4 01          	addl   $0x1,-0xc(%ebp)
 8049da4:	8b 45 f4             	mov    -0xc(%ebp),%eax
 8049da7:	8b 04 85 80 d2 04 08 	mov    0x804d280(,%eax,4),%eax
 8049dae:	85 c0                	test   %eax,%eax
 8049db0:	75 d8                	jne    8049d8a <initialize_bomb+0xd3>
 8049db2:	83 ec 0c             	sub    $0xc,%esp
 8049db5:	6a 08                	push   $0x8
 8049db7:	e8 74 f3 ff ff       	call   8049130 <exit@plt>
 8049dbc:	83 ec 0c             	sub    $0xc,%esp
 8049dbf:	8d 85 f0 db ff ff    	lea    -0x2410(%ebp),%eax
 8049dc5:	50                   	push   %eax
 8049dc6:	e8 38 0b 00 00       	call   804a903 <init_driver>
 8049dcb:	83 c4 10             	add    $0x10,%esp
 8049dce:	85 c0                	test   %eax,%eax
 8049dd0:	79 21                	jns    8049df3 <initialize_bomb+0x13c>
 8049dd2:	83 ec 08             	sub    $0x8,%esp
 8049dd5:	8d 85 f0 db ff ff    	lea    -0x2410(%ebp),%eax
 8049ddb:	50                   	push   %eax
 8049ddc:	68 93 b4 04 08       	push   $0x804b493
 8049de1:	e8 7a f2 ff ff       	call   8049060 <printf@plt>
 8049de6:	83 c4 10             	add    $0x10,%esp
 8049de9:	83 ec 0c             	sub    $0xc,%esp
 8049dec:	6a 08                	push   $0x8
 8049dee:	e8 3d f3 ff ff       	call   8049130 <exit@plt>
 8049df3:	90                   	nop
 8049df4:	c9                   	leave  
 8049df5:	c3                   	ret    

08049df6 <validate>:
 8049df6:	55                   	push   %ebp
 8049df7:	89 e5                	mov    %esp,%ebp
 8049df9:	81 ec 18 40 00 00    	sub    $0x4018,%esp
 8049dff:	a1 50 d2 04 08       	mov    0x804d250,%eax
 8049e04:	85 c0                	test   %eax,%eax
 8049e06:	75 15                	jne    8049e1d <validate+0x27>
 8049e08:	83 ec 0c             	sub    $0xc,%esp
 8049e0b:	68 a8 b4 04 08       	push   $0x804b4a8
 8049e10:	e8 0b f3 ff ff       	call   8049120 <puts@plt>
 8049e15:	83 c4 10             	add    $0x10,%esp
 8049e18:	e9 36 01 00 00       	jmp    8049f53 <validate+0x15d>
 8049e1d:	83 7d 08 00          	cmpl   $0x0,0x8(%ebp)
 8049e21:	78 06                	js     8049e29 <validate+0x33>
 8049e23:	83 7d 08 05          	cmpl   $0x5,0x8(%ebp)
 8049e27:	7e 15                	jle    8049e3e <validate+0x48>
 8049e29:	83 ec 0c             	sub    $0xc,%esp
 8049e2c:	68 d4 b4 04 08       	push   $0x804b4d4
 8049e31:	e8 ea f2 ff ff       	call   8049120 <puts@plt>
 8049e36:	83 c4 10             	add    $0x10,%esp
 8049e39:	e9 15 01 00 00       	jmp    8049f53 <validate+0x15d>
 8049e3e:	c7 05 64 d2 04 08 01 	movl   $0x1,0x804d264
 8049e45:	00 00 00 
 8049e48:	8b 45 08             	mov    0x8(%ebp),%eax
 8049e4b:	8b 04 85 08 d2 04 08 	mov    0x804d208(,%eax,4),%eax
 8049e52:	8d 50 ff             	lea    -0x1(%eax),%edx
 8049e55:	8b 45 08             	mov    0x8(%ebp),%eax
 8049e58:	89 14 85 08 d2 04 08 	mov    %edx,0x804d208(,%eax,4)
 8049e5f:	8b 45 08             	mov    0x8(%ebp),%eax
 8049e62:	8b 04 85 08 d2 04 08 	mov    0x804d208(,%eax,4),%eax
 8049e69:	85 c0                	test   %eax,%eax
 8049e6b:	7e 15                	jle    8049e82 <validate+0x8c>
 8049e6d:	83 ec 0c             	sub    $0xc,%esp
 8049e70:	68 fa b4 04 08       	push   $0x804b4fa
 8049e75:	e8 a6 f2 ff ff       	call   8049120 <puts@plt>
 8049e7a:	83 c4 10             	add    $0x10,%esp
 8049e7d:	e9 d1 00 00 00       	jmp    8049f53 <validate+0x15d>
 8049e82:	83 ec 0c             	sub    $0xc,%esp
 8049e85:	68 05 b5 04 08       	push   $0x804b505
 8049e8a:	e8 91 f2 ff ff       	call   8049120 <puts@plt>
 8049e8f:	83 c4 10             	add    $0x10,%esp
 8049e92:	a1 54 d2 04 08       	mov    0x804d254,%eax
 8049e97:	85 c0                	test   %eax,%eax
 8049e99:	0f 84 a4 00 00 00    	je     8049f43 <validate+0x14d>
 8049e9f:	83 ec 0c             	sub    $0xc,%esp
 8049ea2:	68 a0 e2 04 08       	push   $0x804e2a0
 8049ea7:	e8 b4 f2 ff ff       	call   8049160 <strlen@plt>
 8049eac:	83 c4 10             	add    $0x10,%esp
 8049eaf:	83 c0 20             	add    $0x20,%eax
 8049eb2:	3d 00 20 00 00       	cmp    $0x2000,%eax
 8049eb7:	76 15                	jbe    8049ece <validate+0xd8>
 8049eb9:	83 ec 0c             	sub    $0xc,%esp
 8049ebc:	68 0c b5 04 08       	push   $0x804b50c
 8049ec1:	e8 5a f2 ff ff       	call   8049120 <puts@plt>
 8049ec6:	83 c4 10             	add    $0x10,%esp
 8049ec9:	e9 85 00 00 00       	jmp    8049f53 <validate+0x15d>
 8049ece:	a1 60 d2 04 08       	mov    0x804d260,%eax
 8049ed3:	83 ec 0c             	sub    $0xc,%esp
 8049ed6:	68 a0 e2 04 08       	push   $0x804e2a0
 8049edb:	50                   	push   %eax
 8049edc:	ff 75 08             	pushl  0x8(%ebp)
 8049edf:	68 43 b5 04 08       	push   $0x804b543
 8049ee4:	8d 85 f4 df ff ff    	lea    -0x200c(%ebp),%eax
 8049eea:	50                   	push   %eax
 8049eeb:	e8 10 f3 ff ff       	call   8049200 <sprintf@plt>
 8049ef0:	83 c4 20             	add    $0x20,%esp
 8049ef3:	a1 50 d2 04 08       	mov    0x804d250,%eax
 8049ef8:	8d 95 f4 bf ff ff    	lea    -0x400c(%ebp),%edx
 8049efe:	52                   	push   %edx
 8049eff:	6a 00                	push   $0x0
 8049f01:	8d 95 f4 df ff ff    	lea    -0x200c(%ebp),%edx
 8049f07:	52                   	push   %edx
 8049f08:	50                   	push   %eax
 8049f09:	e8 a8 0b 00 00       	call   804aab6 <driver_post>
 8049f0e:	83 c4 10             	add    $0x10,%esp
 8049f11:	89 45 f4             	mov    %eax,-0xc(%ebp)
 8049f14:	83 7d f4 00          	cmpl   $0x0,-0xc(%ebp)
 8049f18:	75 12                	jne    8049f2c <validate+0x136>
 8049f1a:	83 ec 0c             	sub    $0xc,%esp
 8049f1d:	68 4c b5 04 08       	push   $0x804b54c
 8049f22:	e8 f9 f1 ff ff       	call   8049120 <puts@plt>
 8049f27:	83 c4 10             	add    $0x10,%esp
 8049f2a:	eb 17                	jmp    8049f43 <validate+0x14d>
 8049f2c:	83 ec 08             	sub    $0x8,%esp
 8049f2f:	8d 85 f4 bf ff ff    	lea    -0x400c(%ebp),%eax
 8049f35:	50                   	push   %eax
 8049f36:	68 7c b5 04 08       	push   $0x804b57c
 8049f3b:	e8 20 f1 ff ff       	call   8049060 <printf@plt>
 8049f40:	83 c4 10             	add    $0x10,%esp
 8049f43:	83 ec 0c             	sub    $0xc,%esp
 8049f46:	68 ba b5 04 08       	push   $0x804b5ba
 8049f4b:	e8 d0 f1 ff ff       	call   8049120 <puts@plt>
 8049f50:	83 c4 10             	add    $0x10,%esp
 8049f53:	c9                   	leave  
 8049f54:	c3                   	ret    

08049f55 <sigalrm_handler>:
 8049f55:	55                   	push   %ebp
 8049f56:	89 e5                	mov    %esp,%ebp
 8049f58:	83 ec 08             	sub    $0x8,%esp
 8049f5b:	83 ec 08             	sub    $0x8,%esp
 8049f5e:	6a 02                	push   $0x2
 8049f60:	68 c4 b5 04 08       	push   $0x804b5c4
 8049f65:	e8 f6 f0 ff ff       	call   8049060 <printf@plt>
 8049f6a:	83 c4 10             	add    $0x10,%esp
 8049f6d:	83 ec 0c             	sub    $0xc,%esp
 8049f70:	6a 01                	push   $0x1
 8049f72:	e8 b9 f1 ff ff       	call   8049130 <exit@plt>

08049f77 <rio_readinitb>:
 8049f77:	55                   	push   %ebp
 8049f78:	89 e5                	mov    %esp,%ebp
 8049f7a:	8b 45 08             	mov    0x8(%ebp),%eax
 8049f7d:	8b 55 0c             	mov    0xc(%ebp),%edx
 8049f80:	89 10                	mov    %edx,(%eax)
 8049f82:	8b 45 08             	mov    0x8(%ebp),%eax
 8049f85:	c7 40 04 00 00 00 00 	movl   $0x0,0x4(%eax)
 8049f8c:	8b 45 08             	mov    0x8(%ebp),%eax
 8049f8f:	8d 50 0c             	lea    0xc(%eax),%edx
 8049f92:	8b 45 08             	mov    0x8(%ebp),%eax
 8049f95:	89 50 08             	mov    %edx,0x8(%eax)
 8049f98:	90                   	nop
 8049f99:	5d                   	pop    %ebp
 8049f9a:	c3                   	ret    

08049f9b <rio_read>:
 8049f9b:	55                   	push   %ebp
 8049f9c:	89 e5                	mov    %esp,%ebp
 8049f9e:	83 ec 18             	sub    $0x18,%esp
 8049fa1:	eb 5f                	jmp    804a002 <rio_read+0x67>
 8049fa3:	8b 45 08             	mov    0x8(%ebp),%eax
 8049fa6:	8d 50 0c             	lea    0xc(%eax),%edx
 8049fa9:	8b 45 08             	mov    0x8(%ebp),%eax
 8049fac:	8b 00                	mov    (%eax),%eax
 8049fae:	83 ec 04             	sub    $0x4,%esp
 8049fb1:	68 00 20 00 00       	push   $0x2000
 8049fb6:	52                   	push   %edx
 8049fb7:	50                   	push   %eax
 8049fb8:	e8 83 f0 ff ff       	call   8049040 <read@plt>
 8049fbd:	83 c4 10             	add    $0x10,%esp
 8049fc0:	89 c2                	mov    %eax,%edx
 8049fc2:	8b 45 08             	mov    0x8(%ebp),%eax
 8049fc5:	89 50 04             	mov    %edx,0x4(%eax)
 8049fc8:	8b 45 08             	mov    0x8(%ebp),%eax
 8049fcb:	8b 40 04             	mov    0x4(%eax),%eax
 8049fce:	85 c0                	test   %eax,%eax
 8049fd0:	79 13                	jns    8049fe5 <rio_read+0x4a>
 8049fd2:	e8 f9 f1 ff ff       	call   80491d0 <__errno_location@plt>
 8049fd7:	8b 00                	mov    (%eax),%eax
 8049fd9:	83 f8 04             	cmp    $0x4,%eax
 8049fdc:	74 24                	je     804a002 <rio_read+0x67>
 8049fde:	b8 ff ff ff ff       	mov    $0xffffffff,%eax
 8049fe3:	eb 7f                	jmp    804a064 <rio_read+0xc9>
 8049fe5:	8b 45 08             	mov    0x8(%ebp),%eax
 8049fe8:	8b 40 04             	mov    0x4(%eax),%eax
 8049feb:	85 c0                	test   %eax,%eax
 8049fed:	75 07                	jne    8049ff6 <rio_read+0x5b>
 8049fef:	b8 00 00 00 00       	mov    $0x0,%eax
 8049ff4:	eb 6e                	jmp    804a064 <rio_read+0xc9>
 8049ff6:	8b 45 08             	mov    0x8(%ebp),%eax
 8049ff9:	8d 50 0c             	lea    0xc(%eax),%edx
 8049ffc:	8b 45 08             	mov    0x8(%ebp),%eax
 8049fff:	89 50 08             	mov    %edx,0x8(%eax)
 804a002:	8b 45 08             	mov    0x8(%ebp),%eax
 804a005:	8b 40 04             	mov    0x4(%eax),%eax
 804a008:	85 c0                	test   %eax,%eax
 804a00a:	7e 97                	jle    8049fa3 <rio_read+0x8>
 804a00c:	8b 45 10             	mov    0x10(%ebp),%eax
 804a00f:	89 45 f4             	mov    %eax,-0xc(%ebp)
 804a012:	8b 45 08             	mov    0x8(%ebp),%eax
 804a015:	8b 40 04             	mov    0x4(%eax),%eax
 804a018:	39 45 10             	cmp    %eax,0x10(%ebp)
 804a01b:	76 09                	jbe    804a026 <rio_read+0x8b>
 804a01d:	8b 45 08             	mov    0x8(%ebp),%eax
 804a020:	8b 40 04             	mov    0x4(%eax),%eax
 804a023:	89 45 f4             	mov    %eax,-0xc(%ebp)
 804a026:	8b 55 f4             	mov    -0xc(%ebp),%edx
 804a029:	8b 45 08             	mov    0x8(%ebp),%eax
 804a02c:	8b 40 08             	mov    0x8(%eax),%eax
 804a02f:	83 ec 04             	sub    $0x4,%esp
 804a032:	52                   	push   %edx
 804a033:	50                   	push   %eax
 804a034:	ff 75 0c             	pushl  0xc(%ebp)
 804a037:	e8 54 f0 ff ff       	call   8049090 <memcpy@plt>
 804a03c:	83 c4 10             	add    $0x10,%esp
 804a03f:	8b 45 08             	mov    0x8(%ebp),%eax
 804a042:	8b 50 08             	mov    0x8(%eax),%edx
 804a045:	8b 45 f4             	mov    -0xc(%ebp),%eax
 804a048:	01 c2                	add    %eax,%edx
 804a04a:	8b 45 08             	mov    0x8(%ebp),%eax
 804a04d:	89 50 08             	mov    %edx,0x8(%eax)
 804a050:	8b 45 08             	mov    0x8(%ebp),%eax
 804a053:	8b 40 04             	mov    0x4(%eax),%eax
 804a056:	2b 45 f4             	sub    -0xc(%ebp),%eax
 804a059:	89 c2                	mov    %eax,%edx
 804a05b:	8b 45 08             	mov    0x8(%ebp),%eax
 804a05e:	89 50 04             	mov    %edx,0x4(%eax)
 804a061:	8b 45 f4             	mov    -0xc(%ebp),%eax
 804a064:	c9                   	leave  
 804a065:	c3                   	ret    

0804a066 <rio_readlineb>:
 804a066:	55                   	push   %ebp
 804a067:	89 e5                	mov    %esp,%ebp
 804a069:	83 ec 18             	sub    $0x18,%esp
 804a06c:	8b 45 0c             	mov    0xc(%ebp),%eax
 804a06f:	89 45 f0             	mov    %eax,-0x10(%ebp)
 804a072:	c7 45 f4 01 00 00 00 	movl   $0x1,-0xc(%ebp)
 804a079:	eb 54                	jmp    804a0cf <rio_readlineb+0x69>
 804a07b:	83 ec 04             	sub    $0x4,%esp
 804a07e:	6a 01                	push   $0x1
 804a080:	8d 45 eb             	lea    -0x15(%ebp),%eax
 804a083:	50                   	push   %eax
 804a084:	ff 75 08             	pushl  0x8(%ebp)
 804a087:	e8 0f ff ff ff       	call   8049f9b <rio_read>
 804a08c:	83 c4 10             	add    $0x10,%esp
 804a08f:	89 45 ec             	mov    %eax,-0x14(%ebp)
 804a092:	83 7d ec 01          	cmpl   $0x1,-0x14(%ebp)
 804a096:	75 19                	jne    804a0b1 <rio_readlineb+0x4b>
 804a098:	8b 45 f0             	mov    -0x10(%ebp),%eax
 804a09b:	8d 50 01             	lea    0x1(%eax),%edx
 804a09e:	89 55 f0             	mov    %edx,-0x10(%ebp)
 804a0a1:	0f b6 55 eb          	movzbl -0x15(%ebp),%edx
 804a0a5:	88 10                	mov    %dl,(%eax)
 804a0a7:	0f b6 45 eb          	movzbl -0x15(%ebp),%eax
 804a0ab:	3c 0a                	cmp    $0xa,%al
 804a0ad:	75 1c                	jne    804a0cb <rio_readlineb+0x65>
 804a0af:	eb 29                	jmp    804a0da <rio_readlineb+0x74>
 804a0b1:	83 7d ec 00          	cmpl   $0x0,-0x14(%ebp)
 804a0b5:	75 0d                	jne    804a0c4 <rio_readlineb+0x5e>
 804a0b7:	83 7d f4 01          	cmpl   $0x1,-0xc(%ebp)
 804a0bb:	75 1c                	jne    804a0d9 <rio_readlineb+0x73>
 804a0bd:	b8 00 00 00 00       	mov    $0x0,%eax
 804a0c2:	eb 1f                	jmp    804a0e3 <rio_readlineb+0x7d>
 804a0c4:	b8 ff ff ff ff       	mov    $0xffffffff,%eax
 804a0c9:	eb 18                	jmp    804a0e3 <rio_readlineb+0x7d>
 804a0cb:	83 45 f4 01          	addl   $0x1,-0xc(%ebp)
 804a0cf:	8b 45 f4             	mov    -0xc(%ebp),%eax
 804a0d2:	39 45 10             	cmp    %eax,0x10(%ebp)
 804a0d5:	77 a4                	ja     804a07b <rio_readlineb+0x15>
 804a0d7:	eb 01                	jmp    804a0da <rio_readlineb+0x74>
 804a0d9:	90                   	nop
 804a0da:	8b 45 f0             	mov    -0x10(%ebp),%eax
 804a0dd:	c6 00 00             	movb   $0x0,(%eax)
 804a0e0:	8b 45 f4             	mov    -0xc(%ebp),%eax
 804a0e3:	c9                   	leave  
 804a0e4:	c3                   	ret    

0804a0e5 <rio_writen>:
 804a0e5:	55                   	push   %ebp
 804a0e6:	89 e5                	mov    %esp,%ebp
 804a0e8:	83 ec 18             	sub    $0x18,%esp
 804a0eb:	8b 45 10             	mov    0x10(%ebp),%eax
 804a0ee:	89 45 f4             	mov    %eax,-0xc(%ebp)
 804a0f1:	8b 45 0c             	mov    0xc(%ebp),%eax
 804a0f4:	89 45 ec             	mov    %eax,-0x14(%ebp)
 804a0f7:	eb 45                	jmp    804a13e <rio_writen+0x59>
 804a0f9:	83 ec 04             	sub    $0x4,%esp
 804a0fc:	ff 75 f4             	pushl  -0xc(%ebp)
 804a0ff:	ff 75 ec             	pushl  -0x14(%ebp)
 804a102:	ff 75 08             	pushl  0x8(%ebp)
 804a105:	e8 76 f0 ff ff       	call   8049180 <write@plt>
 804a10a:	83 c4 10             	add    $0x10,%esp
 804a10d:	89 45 f0             	mov    %eax,-0x10(%ebp)
 804a110:	83 7d f0 00          	cmpl   $0x0,-0x10(%ebp)
 804a114:	7f 1c                	jg     804a132 <rio_writen+0x4d>
 804a116:	e8 b5 f0 ff ff       	call   80491d0 <__errno_location@plt>
 804a11b:	8b 00                	mov    (%eax),%eax
 804a11d:	83 f8 04             	cmp    $0x4,%eax
 804a120:	75 09                	jne    804a12b <rio_writen+0x46>
 804a122:	c7 45 f0 00 00 00 00 	movl   $0x0,-0x10(%ebp)
 804a129:	eb 07                	jmp    804a132 <rio_writen+0x4d>
 804a12b:	b8 ff ff ff ff       	mov    $0xffffffff,%eax
 804a130:	eb 15                	jmp    804a147 <rio_writen+0x62>
 804a132:	8b 45 f0             	mov    -0x10(%ebp),%eax
 804a135:	29 45 f4             	sub    %eax,-0xc(%ebp)
 804a138:	8b 45 f0             	mov    -0x10(%ebp),%eax
 804a13b:	01 45 ec             	add    %eax,-0x14(%ebp)
 804a13e:	83 7d f4 00          	cmpl   $0x0,-0xc(%ebp)
 804a142:	75 b5                	jne    804a0f9 <rio_writen+0x14>
 804a144:	8b 45 10             	mov    0x10(%ebp),%eax
 804a147:	c9                   	leave  
 804a148:	c3                   	ret    

0804a149 <urlencode>:
 804a149:	55                   	push   %ebp
 804a14a:	89 e5                	mov    %esp,%ebp
 804a14c:	83 ec 18             	sub    $0x18,%esp
 804a14f:	83 ec 0c             	sub    $0xc,%esp
 804a152:	ff 75 08             	pushl  0x8(%ebp)
 804a155:	e8 06 f0 ff ff       	call   8049160 <strlen@plt>
 804a15a:	83 c4 10             	add    $0x10,%esp
 804a15d:	89 45 f4             	mov    %eax,-0xc(%ebp)
 804a160:	e9 0e 01 00 00       	jmp    804a273 <urlencode+0x12a>
 804a165:	8b 45 08             	mov    0x8(%ebp),%eax
 804a168:	0f b6 00             	movzbl (%eax),%eax
 804a16b:	3c 2a                	cmp    $0x2a,%al
 804a16d:	74 5a                	je     804a1c9 <urlencode+0x80>
 804a16f:	8b 45 08             	mov    0x8(%ebp),%eax
 804a172:	0f b6 00             	movzbl (%eax),%eax
 804a175:	3c 2d                	cmp    $0x2d,%al
 804a177:	74 50                	je     804a1c9 <urlencode+0x80>
 804a179:	8b 45 08             	mov    0x8(%ebp),%eax
 804a17c:	0f b6 00             	movzbl (%eax),%eax
 804a17f:	3c 2e                	cmp    $0x2e,%al
 804a181:	74 46                	je     804a1c9 <urlencode+0x80>
 804a183:	8b 45 08             	mov    0x8(%ebp),%eax
 804a186:	0f b6 00             	movzbl (%eax),%eax
 804a189:	3c 5f                	cmp    $0x5f,%al
 804a18b:	74 3c                	je     804a1c9 <urlencode+0x80>
 804a18d:	8b 45 08             	mov    0x8(%ebp),%eax
 804a190:	0f b6 00             	movzbl (%eax),%eax
 804a193:	3c 2f                	cmp    $0x2f,%al
 804a195:	76 0a                	jbe    804a1a1 <urlencode+0x58>
 804a197:	8b 45 08             	mov    0x8(%ebp),%eax
 804a19a:	0f b6 00             	movzbl (%eax),%eax
 804a19d:	3c 39                	cmp    $0x39,%al
 804a19f:	76 28                	jbe    804a1c9 <urlencode+0x80>
 804a1a1:	8b 45 08             	mov    0x8(%ebp),%eax
 804a1a4:	0f b6 00             	movzbl (%eax),%eax
 804a1a7:	3c 40                	cmp    $0x40,%al
 804a1a9:	76 0a                	jbe    804a1b5 <urlencode+0x6c>
 804a1ab:	8b 45 08             	mov    0x8(%ebp),%eax
 804a1ae:	0f b6 00             	movzbl (%eax),%eax
 804a1b1:	3c 5a                	cmp    $0x5a,%al
 804a1b3:	76 14                	jbe    804a1c9 <urlencode+0x80>
 804a1b5:	8b 45 08             	mov    0x8(%ebp),%eax
 804a1b8:	0f b6 00             	movzbl (%eax),%eax
 804a1bb:	3c 60                	cmp    $0x60,%al
 804a1bd:	76 20                	jbe    804a1df <urlencode+0x96>
 804a1bf:	8b 45 08             	mov    0x8(%ebp),%eax
 804a1c2:	0f b6 00             	movzbl (%eax),%eax
 804a1c5:	3c 7a                	cmp    $0x7a,%al
 804a1c7:	77 16                	ja     804a1df <urlencode+0x96>
 804a1c9:	8b 45 0c             	mov    0xc(%ebp),%eax
 804a1cc:	8d 50 01             	lea    0x1(%eax),%edx
 804a1cf:	89 55 0c             	mov    %edx,0xc(%ebp)
 804a1d2:	8b 55 08             	mov    0x8(%ebp),%edx
 804a1d5:	0f b6 12             	movzbl (%edx),%edx
 804a1d8:	88 10                	mov    %dl,(%eax)
 804a1da:	e9 90 00 00 00       	jmp    804a26f <urlencode+0x126>
 804a1df:	8b 45 08             	mov    0x8(%ebp),%eax
 804a1e2:	0f b6 00             	movzbl (%eax),%eax
 804a1e5:	3c 20                	cmp    $0x20,%al
 804a1e7:	75 0e                	jne    804a1f7 <urlencode+0xae>
 804a1e9:	8b 45 0c             	mov    0xc(%ebp),%eax
 804a1ec:	8d 50 01             	lea    0x1(%eax),%edx
 804a1ef:	89 55 0c             	mov    %edx,0xc(%ebp)
 804a1f2:	c6 00 2b             	movb   $0x2b,(%eax)
 804a1f5:	eb 78                	jmp    804a26f <urlencode+0x126>
 804a1f7:	8b 45 08             	mov    0x8(%ebp),%eax
 804a1fa:	0f b6 00             	movzbl (%eax),%eax
 804a1fd:	3c 1f                	cmp    $0x1f,%al
 804a1ff:	76 0a                	jbe    804a20b <urlencode+0xc2>
 804a201:	8b 45 08             	mov    0x8(%ebp),%eax
 804a204:	0f b6 00             	movzbl (%eax),%eax
 804a207:	84 c0                	test   %al,%al
 804a209:	79 0a                	jns    804a215 <urlencode+0xcc>
 804a20b:	8b 45 08             	mov    0x8(%ebp),%eax
 804a20e:	0f b6 00             	movzbl (%eax),%eax
 804a211:	3c 09                	cmp    $0x9,%al
 804a213:	75 53                	jne    804a268 <urlencode+0x11f>
 804a215:	8b 45 08             	mov    0x8(%ebp),%eax
 804a218:	0f b6 00             	movzbl (%eax),%eax
 804a21b:	0f b6 c0             	movzbl %al,%eax
 804a21e:	83 ec 04             	sub    $0x4,%esp
 804a221:	50                   	push   %eax
 804a222:	68 e8 b5 04 08       	push   $0x804b5e8
 804a227:	8d 45 ec             	lea    -0x14(%ebp),%eax
 804a22a:	50                   	push   %eax
 804a22b:	e8 d0 ef ff ff       	call   8049200 <sprintf@plt>
 804a230:	83 c4 10             	add    $0x10,%esp
 804a233:	0f b6 4d ec          	movzbl -0x14(%ebp),%ecx
 804a237:	8b 45 0c             	mov    0xc(%ebp),%eax
 804a23a:	8d 50 01             	lea    0x1(%eax),%edx
 804a23d:	89 55 0c             	mov    %edx,0xc(%ebp)
 804a240:	89 ca                	mov    %ecx,%edx
 804a242:	88 10                	mov    %dl,(%eax)
 804a244:	0f b6 4d ed          	movzbl -0x13(%ebp),%ecx
 804a248:	8b 45 0c             	mov    0xc(%ebp),%eax
 804a24b:	8d 50 01             	lea    0x1(%eax),%edx
 804a24e:	89 55 0c             	mov    %edx,0xc(%ebp)
 804a251:	89 ca                	mov    %ecx,%edx
 804a253:	88 10                	mov    %dl,(%eax)
 804a255:	0f b6 4d ee          	movzbl -0x12(%ebp),%ecx
 804a259:	8b 45 0c             	mov    0xc(%ebp),%eax
 804a25c:	8d 50 01             	lea    0x1(%eax),%edx
 804a25f:	89 55 0c             	mov    %edx,0xc(%ebp)
 804a262:	89 ca                	mov    %ecx,%edx
 804a264:	88 10                	mov    %dl,(%eax)
 804a266:	eb 07                	jmp    804a26f <urlencode+0x126>
 804a268:	b8 ff ff ff ff       	mov    $0xffffffff,%eax
 804a26d:	eb 1a                	jmp    804a289 <urlencode+0x140>
 804a26f:	83 45 08 01          	addl   $0x1,0x8(%ebp)
 804a273:	8b 45 f4             	mov    -0xc(%ebp),%eax
 804a276:	8d 50 ff             	lea    -0x1(%eax),%edx
 804a279:	89 55 f4             	mov    %edx,-0xc(%ebp)
 804a27c:	85 c0                	test   %eax,%eax
 804a27e:	0f 85 e1 fe ff ff    	jne    804a165 <urlencode+0x1c>
 804a284:	b8 00 00 00 00       	mov    $0x0,%eax
 804a289:	c9                   	leave  
 804a28a:	c3                   	ret    

0804a28b <submitr>:
 804a28b:	55                   	push   %ebp
 804a28c:	89 e5                	mov    %esp,%ebp
 804a28e:	57                   	push   %edi
 804a28f:	56                   	push   %esi
 804a290:	53                   	push   %ebx
 804a291:	81 ec 3c a0 00 00    	sub    $0xa03c,%esp
 804a297:	c7 85 b8 7f ff ff 00 	movl   $0x0,-0x8048(%ebp)
 804a29e:	00 00 00 
 804a2a1:	83 ec 04             	sub    $0x4,%esp
 804a2a4:	6a 00                	push   $0x0
 804a2a6:	6a 01                	push   $0x1
 804a2a8:	6a 02                	push   $0x2
 804a2aa:	e8 61 ef ff ff       	call   8049210 <socket@plt>
 804a2af:	83 c4 10             	add    $0x10,%esp
 804a2b2:	89 45 e4             	mov    %eax,-0x1c(%ebp)
 804a2b5:	83 7d e4 00          	cmpl   $0x0,-0x1c(%ebp)
 804a2b9:	79 51                	jns    804a30c <submitr+0x81>
 804a2bb:	8b 45 20             	mov    0x20(%ebp),%eax
 804a2be:	c7 00 45 72 72 6f    	movl   $0x6f727245,(%eax)
 804a2c4:	c7 40 04 72 3a 20 43 	movl   $0x43203a72,0x4(%eax)
 804a2cb:	c7 40 08 6c 69 65 6e 	movl   $0x6e65696c,0x8(%eax)
 804a2d2:	c7 40 0c 74 20 75 6e 	movl   $0x6e752074,0xc(%eax)
 804a2d9:	c7 40 10 61 62 6c 65 	movl   $0x656c6261,0x10(%eax)
 804a2e0:	c7 40 14 20 74 6f 20 	movl   $0x206f7420,0x14(%eax)
 804a2e7:	c7 40 18 63 72 65 61 	movl   $0x61657263,0x18(%eax)
 804a2ee:	c7 40 1c 74 65 20 73 	movl   $0x73206574,0x1c(%eax)
 804a2f5:	c7 40 20 6f 63 6b 65 	movl   $0x656b636f,0x20(%eax)
 804a2fc:	66 c7 40 24 74 00    	movw   $0x74,0x24(%eax)
 804a302:	b8 ff ff ff ff       	mov    $0xffffffff,%eax
 804a307:	e9 b0 05 00 00       	jmp    804a8bc <submitr+0x631>
 804a30c:	83 ec 0c             	sub    $0xc,%esp
 804a30f:	ff 75 08             	pushl  0x8(%ebp)
 804a312:	e8 29 ef ff ff       	call   8049240 <gethostbyname@plt>
 804a317:	83 c4 10             	add    $0x10,%esp
 804a31a:	89 45 e0             	mov    %eax,-0x20(%ebp)
 804a31d:	83 7d e0 00          	cmpl   $0x0,-0x20(%ebp)
 804a321:	75 2e                	jne    804a351 <submitr+0xc6>
 804a323:	83 ec 04             	sub    $0x4,%esp
 804a326:	ff 75 08             	pushl  0x8(%ebp)
 804a329:	68 f0 b5 04 08       	push   $0x804b5f0
 804a32e:	ff 75 20             	pushl  0x20(%ebp)
 804a331:	e8 ca ee ff ff       	call   8049200 <sprintf@plt>
 804a336:	83 c4 10             	add    $0x10,%esp
 804a339:	83 ec 0c             	sub    $0xc,%esp
 804a33c:	ff 75 e4             	pushl  -0x1c(%ebp)
 804a33f:	e8 1c ef ff ff       	call   8049260 <close@plt>
 804a344:	83 c4 10             	add    $0x10,%esp
 804a347:	b8 ff ff ff ff       	mov    $0xffffffff,%eax
 804a34c:	e9 6b 05 00 00       	jmp    804a8bc <submitr+0x631>
 804a351:	8d 45 c8             	lea    -0x38(%ebp),%eax
 804a354:	c7 00 00 00 00 00    	movl   $0x0,(%eax)
 804a35a:	c7 40 04 00 00 00 00 	movl   $0x0,0x4(%eax)
 804a361:	c7 40 08 00 00 00 00 	movl   $0x0,0x8(%eax)
 804a368:	c7 40 0c 00 00 00 00 	movl   $0x0,0xc(%eax)
 804a36f:	66 c7 45 c8 02 00    	movw   $0x2,-0x38(%ebp)
 804a375:	8b 45 e0             	mov    -0x20(%ebp),%eax
 804a378:	8b 40 0c             	mov    0xc(%eax),%eax
 804a37b:	89 c2                	mov    %eax,%edx
 804a37d:	8b 45 e0             	mov    -0x20(%ebp),%eax
 804a380:	8b 40 10             	mov    0x10(%eax),%eax
 804a383:	8b 00                	mov    (%eax),%eax
 804a385:	83 ec 04             	sub    $0x4,%esp
 804a388:	52                   	push   %edx
 804a389:	50                   	push   %eax
 804a38a:	8d 45 c8             	lea    -0x38(%ebp),%eax
 804a38d:	83 c0 04             	add    $0x4,%eax
 804a390:	50                   	push   %eax
 804a391:	e8 da ec ff ff       	call   8049070 <memmove@plt>
 804a396:	83 c4 10             	add    $0x10,%esp
 804a399:	8b 45 0c             	mov    0xc(%ebp),%eax
 804a39c:	0f b7 c0             	movzwl %ax,%eax
 804a39f:	83 ec 0c             	sub    $0xc,%esp
 804a3a2:	50                   	push   %eax
 804a3a3:	e8 28 ed ff ff       	call   80490d0 <htons@plt>
 804a3a8:	83 c4 10             	add    $0x10,%esp
 804a3ab:	66 89 45 ca          	mov    %ax,-0x36(%ebp)
 804a3af:	83 ec 04             	sub    $0x4,%esp
 804a3b2:	6a 10                	push   $0x10
 804a3b4:	8d 45 c8             	lea    -0x38(%ebp),%eax
 804a3b7:	50                   	push   %eax
 804a3b8:	ff 75 e4             	pushl  -0x1c(%ebp)
 804a3bb:	e8 90 ee ff ff       	call   8049250 <connect@plt>
 804a3c0:	83 c4 10             	add    $0x10,%esp
 804a3c3:	85 c0                	test   %eax,%eax
 804a3c5:	79 2e                	jns    804a3f5 <submitr+0x16a>
 804a3c7:	83 ec 04             	sub    $0x4,%esp
 804a3ca:	ff 75 08             	pushl  0x8(%ebp)
 804a3cd:	68 1c b6 04 08       	push   $0x804b61c
 804a3d2:	ff 75 20             	pushl  0x20(%ebp)
 804a3d5:	e8 26 ee ff ff       	call   8049200 <sprintf@plt>
 804a3da:	83 c4 10             	add    $0x10,%esp
 804a3dd:	83 ec 0c             	sub    $0xc,%esp
 804a3e0:	ff 75 e4             	pushl  -0x1c(%ebp)
 804a3e3:	e8 78 ee ff ff       	call   8049260 <close@plt>
 804a3e8:	83 c4 10             	add    $0x10,%esp
 804a3eb:	b8 ff ff ff ff       	mov    $0xffffffff,%eax
 804a3f0:	e9 c7 04 00 00       	jmp    804a8bc <submitr+0x631>
 804a3f5:	83 ec 0c             	sub    $0xc,%esp
 804a3f8:	ff 75 1c             	pushl  0x1c(%ebp)
 804a3fb:	e8 60 ed ff ff       	call   8049160 <strlen@plt>
 804a400:	83 c4 10             	add    $0x10,%esp
 804a403:	89 45 dc             	mov    %eax,-0x24(%ebp)
 804a406:	83 ec 0c             	sub    $0xc,%esp
 804a409:	ff 75 10             	pushl  0x10(%ebp)
 804a40c:	e8 4f ed ff ff       	call   8049160 <strlen@plt>
 804a411:	83 c4 10             	add    $0x10,%esp
 804a414:	89 c3                	mov    %eax,%ebx
 804a416:	83 ec 0c             	sub    $0xc,%esp
 804a419:	ff 75 14             	pushl  0x14(%ebp)
 804a41c:	e8 3f ed ff ff       	call   8049160 <strlen@plt>
 804a421:	83 c4 10             	add    $0x10,%esp
 804a424:	01 c3                	add    %eax,%ebx
 804a426:	83 ec 0c             	sub    $0xc,%esp
 804a429:	ff 75 18             	pushl  0x18(%ebp)
 804a42c:	e8 2f ed ff ff       	call   8049160 <strlen@plt>
 804a431:	83 c4 10             	add    $0x10,%esp
 804a434:	8d 0c 03             	lea    (%ebx,%eax,1),%ecx
 804a437:	8b 55 dc             	mov    -0x24(%ebp),%edx
 804a43a:	89 d0                	mov    %edx,%eax
 804a43c:	01 c0                	add    %eax,%eax
 804a43e:	01 d0                	add    %edx,%eax
 804a440:	01 c8                	add    %ecx,%eax
 804a442:	83 e8 80             	sub    $0xffffff80,%eax
 804a445:	89 45 d8             	mov    %eax,-0x28(%ebp)
 804a448:	81 7d d8 00 20 00 00 	cmpl   $0x2000,-0x28(%ebp)
 804a44f:	76 7c                	jbe    804a4cd <submitr+0x242>
 804a451:	8b 45 20             	mov    0x20(%ebp),%eax
 804a454:	c7 00 45 72 72 6f    	movl   $0x6f727245,(%eax)
 804a45a:	c7 40 04 72 3a 20 52 	movl   $0x52203a72,0x4(%eax)
 804a461:	c7 40 08 65 73 75 6c 	movl   $0x6c757365,0x8(%eax)
 804a468:	c7 40 0c 74 20 73 74 	movl   $0x74732074,0xc(%eax)
 804a46f:	c7 40 10 72 69 6e 67 	movl   $0x676e6972,0x10(%eax)
 804a476:	c7 40 14 20 74 6f 6f 	movl   $0x6f6f7420,0x14(%eax)
 804a47d:	c7 40 18 20 6c 61 72 	movl   $0x72616c20,0x18(%eax)
 804a484:	c7 40 1c 67 65 2e 20 	movl   $0x202e6567,0x1c(%eax)
 804a48b:	c7 40 20 49 6e 63 72 	movl   $0x72636e49,0x20(%eax)
 804a492:	c7 40 24 65 61 73 65 	movl   $0x65736165,0x24(%eax)
 804a499:	c7 40 28 20 53 55 42 	movl   $0x42555320,0x28(%eax)
 804a4a0:	c7 40 2c 4d 49 54 52 	movl   $0x5254494d,0x2c(%eax)
 804a4a7:	c7 40 30 5f 4d 41 58 	movl   $0x58414d5f,0x30(%eax)
 804a4ae:	c7 40 34 42 55 46 00 	movl   $0x465542,0x34(%eax)
 804a4b5:	83 ec 0c             	sub    $0xc,%esp
 804a4b8:	ff 75 e4             	pushl  -0x1c(%ebp)
 804a4bb:	e8 a0 ed ff ff       	call   8049260 <close@plt>
 804a4c0:	83 c4 10             	add    $0x10,%esp
 804a4c3:	b8 ff ff ff ff       	mov    $0xffffffff,%eax
 804a4c8:	e9 ef 03 00 00       	jmp    804a8bc <submitr+0x631>
 804a4cd:	8d 85 bc 9f ff ff    	lea    -0x6044(%ebp),%eax
 804a4d3:	89 c3                	mov    %eax,%ebx
 804a4d5:	b8 00 00 00 00       	mov    $0x0,%eax
 804a4da:	ba 00 08 00 00       	mov    $0x800,%edx
 804a4df:	89 df                	mov    %ebx,%edi
 804a4e1:	89 d1                	mov    %edx,%ecx
 804a4e3:	f3 ab                	rep stos %eax,%es:(%edi)
 804a4e5:	83 ec 08             	sub    $0x8,%esp
 804a4e8:	8d 85 bc 9f ff ff    	lea    -0x6044(%ebp),%eax
 804a4ee:	50                   	push   %eax
 804a4ef:	ff 75 1c             	pushl  0x1c(%ebp)
 804a4f2:	e8 52 fc ff ff       	call   804a149 <urlencode>
 804a4f7:	83 c4 10             	add    $0x10,%esp
 804a4fa:	85 c0                	test   %eax,%eax
 804a4fc:	79 4b                	jns    804a549 <submitr+0x2be>
 804a4fe:	8b 45 20             	mov    0x20(%ebp),%eax
 804a501:	bb 44 b6 04 08       	mov    $0x804b644,%ebx
 804a506:	ba 43 00 00 00       	mov    $0x43,%edx
 804a50b:	8b 0b                	mov    (%ebx),%ecx
 804a50d:	89 08                	mov    %ecx,(%eax)
 804a50f:	8b 4c 13 fc          	mov    -0x4(%ebx,%edx,1),%ecx
 804a513:	89 4c 10 fc          	mov    %ecx,-0x4(%eax,%edx,1)
 804a517:	8d 78 04             	lea    0x4(%eax),%edi
 804a51a:	83 e7 fc             	and    $0xfffffffc,%edi
 804a51d:	29 f8                	sub    %edi,%eax
 804a51f:	29 c3                	sub    %eax,%ebx
 804a521:	01 c2                	add    %eax,%edx
 804a523:	83 e2 fc             	and    $0xfffffffc,%edx
 804a526:	89 d0                	mov    %edx,%eax
 804a528:	c1 e8 02             	shr    $0x2,%eax
 804a52b:	89 de                	mov    %ebx,%esi
 804a52d:	89 c1                	mov    %eax,%ecx
 804a52f:	f3 a5                	rep movsl %ds:(%esi),%es:(%edi)
 804a531:	83 ec 0c             	sub    $0xc,%esp
 804a534:	ff 75 e4             	pushl  -0x1c(%ebp)
 804a537:	e8 24 ed ff ff       	call   8049260 <close@plt>
 804a53c:	83 c4 10             	add    $0x10,%esp
 804a53f:	b8 ff ff ff ff       	mov    $0xffffffff,%eax
 804a544:	e9 73 03 00 00       	jmp    804a8bc <submitr+0x631>
 804a549:	83 ec 08             	sub    $0x8,%esp
 804a54c:	8d 85 bc 9f ff ff    	lea    -0x6044(%ebp),%eax
 804a552:	50                   	push   %eax
 804a553:	ff 75 18             	pushl  0x18(%ebp)
 804a556:	ff 75 14             	pushl  0x14(%ebp)
 804a559:	ff 75 10             	pushl  0x10(%ebp)
 804a55c:	68 88 b6 04 08       	push   $0x804b688
 804a561:	8d 85 bc bf ff ff    	lea    -0x4044(%ebp),%eax
 804a567:	50                   	push   %eax
 804a568:	e8 93 ec ff ff       	call   8049200 <sprintf@plt>
 804a56d:	83 c4 20             	add    $0x20,%esp
 804a570:	83 ec 0c             	sub    $0xc,%esp
 804a573:	8d 85 bc bf ff ff    	lea    -0x4044(%ebp),%eax
 804a579:	50                   	push   %eax
 804a57a:	e8 e1 eb ff ff       	call   8049160 <strlen@plt>
 804a57f:	83 c4 10             	add    $0x10,%esp
 804a582:	83 ec 04             	sub    $0x4,%esp
 804a585:	50                   	push   %eax
 804a586:	8d 85 bc bf ff ff    	lea    -0x4044(%ebp),%eax
 804a58c:	50                   	push   %eax
 804a58d:	ff 75 e4             	pushl  -0x1c(%ebp)
 804a590:	e8 50 fb ff ff       	call   804a0e5 <rio_writen>
 804a595:	83 c4 10             	add    $0x10,%esp
 804a598:	85 c0                	test   %eax,%eax
 804a59a:	79 67                	jns    804a603 <submitr+0x378>
 804a59c:	8b 45 20             	mov    0x20(%ebp),%eax
 804a59f:	c7 00 45 72 72 6f    	movl   $0x6f727245,(%eax)
 804a5a5:	c7 40 04 72 3a 20 43 	movl   $0x43203a72,0x4(%eax)
 804a5ac:	c7 40 08 6c 69 65 6e 	movl   $0x6e65696c,0x8(%eax)
 804a5b3:	c7 40 0c 74 20 75 6e 	movl   $0x6e752074,0xc(%eax)
 804a5ba:	c7 40 10 61 62 6c 65 	movl   $0x656c6261,0x10(%eax)
 804a5c1:	c7 40 14 20 74 6f 20 	movl   $0x206f7420,0x14(%eax)
 804a5c8:	c7 40 18 77 72 69 74 	movl   $0x74697277,0x18(%eax)
 804a5cf:	c7 40 1c 65 20 74 6f 	movl   $0x6f742065,0x1c(%eax)
 804a5d6:	c7 40 20 20 74 68 65 	movl   $0x65687420,0x20(%eax)
 804a5dd:	c7 40 24 20 73 65 72 	movl   $0x72657320,0x24(%eax)
 804a5e4:	c7 40 28 76 65 72 00 	movl   $0x726576,0x28(%eax)
 804a5eb:	83 ec 0c             	sub    $0xc,%esp
 804a5ee:	ff 75 e4             	pushl  -0x1c(%ebp)
 804a5f1:	e8 6a ec ff ff       	call   8049260 <close@plt>
 804a5f6:	83 c4 10             	add    $0x10,%esp
 804a5f9:	b8 ff ff ff ff       	mov    $0xffffffff,%eax
 804a5fe:	e9 b9 02 00 00       	jmp    804a8bc <submitr+0x631>
 804a603:	83 ec 08             	sub    $0x8,%esp
 804a606:	ff 75 e4             	pushl  -0x1c(%ebp)
 804a609:	8d 85 bc df ff ff    	lea    -0x2044(%ebp),%eax
 804a60f:	50                   	push   %eax
 804a610:	e8 62 f9 ff ff       	call   8049f77 <rio_readinitb>
 804a615:	83 c4 10             	add    $0x10,%esp
 804a618:	83 ec 04             	sub    $0x4,%esp
 804a61b:	68 00 20 00 00       	push   $0x2000
 804a620:	8d 85 bc bf ff ff    	lea    -0x4044(%ebp),%eax
 804a626:	50                   	push   %eax
 804a627:	8d 85 bc df ff ff    	lea    -0x2044(%ebp),%eax
 804a62d:	50                   	push   %eax
 804a62e:	e8 33 fa ff ff       	call   804a066 <rio_readlineb>
 804a633:	83 c4 10             	add    $0x10,%esp
 804a636:	85 c0                	test   %eax,%eax
 804a638:	7f 7b                	jg     804a6b5 <submitr+0x42a>
 804a63a:	8b 45 20             	mov    0x20(%ebp),%eax
 804a63d:	c7 00 45 72 72 6f    	movl   $0x6f727245,(%eax)
 804a643:	c7 40 04 72 3a 20 43 	movl   $0x43203a72,0x4(%eax)
 804a64a:	c7 40 08 6c 69 65 6e 	movl   $0x6e65696c,0x8(%eax)
 804a651:	c7 40 0c 74 20 75 6e 	movl   $0x6e752074,0xc(%eax)
 804a658:	c7 40 10 61 62 6c 65 	movl   $0x656c6261,0x10(%eax)
 804a65f:	c7 40 14 20 74 6f 20 	movl   $0x206f7420,0x14(%eax)
 804a666:	c7 40 18 72 65 61 64 	movl   $0x64616572,0x18(%eax)
 804a66d:	c7 40 1c 20 66 69 72 	movl   $0x72696620,0x1c(%eax)
 804a674:	c7 40 20 73 74 20 68 	movl   $0x68207473,0x20(%eax)
 804a67b:	c7 40 24 65 61 64 65 	movl   $0x65646165,0x24(%eax)
 804a682:	c7 40 28 72 20 66 72 	movl   $0x72662072,0x28(%eax)
 804a689:	c7 40 2c 6f 6d 20 73 	movl   $0x73206d6f,0x2c(%eax)
 804a690:	c7 40 30 65 72 76 65 	movl   $0x65767265,0x30(%eax)
 804a697:	66 c7 40 34 72 00    	movw   $0x72,0x34(%eax)
 804a69d:	83 ec 0c             	sub    $0xc,%esp
 804a6a0:	ff 75 e4             	pushl  -0x1c(%ebp)
 804a6a3:	e8 b8 eb ff ff       	call   8049260 <close@plt>
 804a6a8:	83 c4 10             	add    $0x10,%esp
 804a6ab:	b8 ff ff ff ff       	mov    $0xffffffff,%eax
 804a6b0:	e9 07 02 00 00       	jmp    804a8bc <submitr+0x631>
 804a6b5:	83 ec 0c             	sub    $0xc,%esp
 804a6b8:	8d 85 b8 5f ff ff    	lea    -0xa048(%ebp),%eax
 804a6be:	50                   	push   %eax
 804a6bf:	8d 85 b8 7f ff ff    	lea    -0x8048(%ebp),%eax
 804a6c5:	50                   	push   %eax
 804a6c6:	8d 85 bc 7f ff ff    	lea    -0x8044(%ebp),%eax
 804a6cc:	50                   	push   %eax
 804a6cd:	68 d2 b6 04 08       	push   $0x804b6d2
 804a6d2:	8d 85 bc bf ff ff    	lea    -0x4044(%ebp),%eax
 804a6d8:	50                   	push   %eax
 804a6d9:	e8 d2 ea ff ff       	call   80491b0 <__isoc99_sscanf@plt>
 804a6de:	83 c4 20             	add    $0x20,%esp
 804a6e1:	8b 85 b8 7f ff ff    	mov    -0x8048(%ebp),%eax
 804a6e7:	3d c8 00 00 00       	cmp    $0xc8,%eax
 804a6ec:	0f 84 ca 00 00 00    	je     804a7bc <submitr+0x531>
 804a6f2:	8b 85 b8 7f ff ff    	mov    -0x8048(%ebp),%eax
 804a6f8:	8d 95 b8 5f ff ff    	lea    -0xa048(%ebp),%edx
 804a6fe:	52                   	push   %edx
 804a6ff:	50                   	push   %eax
 804a700:	68 e4 b6 04 08       	push   $0x804b6e4
 804a705:	ff 75 20             	pushl  0x20(%ebp)
 804a708:	e8 f3 ea ff ff       	call   8049200 <sprintf@plt>
 804a70d:	83 c4 10             	add    $0x10,%esp
 804a710:	83 ec 0c             	sub    $0xc,%esp
 804a713:	ff 75 e4             	pushl  -0x1c(%ebp)
 804a716:	e8 45 eb ff ff       	call   8049260 <close@plt>
 804a71b:	83 c4 10             	add    $0x10,%esp
 804a71e:	b8 ff ff ff ff       	mov    $0xffffffff,%eax
 804a723:	e9 94 01 00 00       	jmp    804a8bc <submitr+0x631>
 804a728:	83 ec 04             	sub    $0x4,%esp
 804a72b:	68 00 20 00 00       	push   $0x2000
 804a730:	8d 85 bc bf ff ff    	lea    -0x4044(%ebp),%eax
 804a736:	50                   	push   %eax
 804a737:	8d 85 bc df ff ff    	lea    -0x2044(%ebp),%eax
 804a73d:	50                   	push   %eax
 804a73e:	e8 23 f9 ff ff       	call   804a066 <rio_readlineb>
 804a743:	83 c4 10             	add    $0x10,%esp
 804a746:	85 c0                	test   %eax,%eax
 804a748:	7f 72                	jg     804a7bc <submitr+0x531>
 804a74a:	8b 45 20             	mov    0x20(%ebp),%eax
 804a74d:	c7 00 45 72 72 6f    	movl   $0x6f727245,(%eax)
 804a753:	c7 40 04 72 3a 20 43 	movl   $0x43203a72,0x4(%eax)
 804a75a:	c7 40 08 6c 69 65 6e 	movl   $0x6e65696c,0x8(%eax)
 804a761:	c7 40 0c 74 20 75 6e 	movl   $0x6e752074,0xc(%eax)
 804a768:	c7 40 10 61 62 6c 65 	movl   $0x656c6261,0x10(%eax)
 804a76f:	c7 40 14 20 74 6f 20 	movl   $0x206f7420,0x14(%eax)
 804a776:	c7 40 18 72 65 61 64 	movl   $0x64616572,0x18(%eax)
 804a77d:	c7 40 1c 20 68 65 61 	movl   $0x61656820,0x1c(%eax)
 804a784:	c7 40 20 64 65 72 73 	movl   $0x73726564,0x20(%eax)
 804a78b:	c7 40 24 20 66 72 6f 	movl   $0x6f726620,0x24(%eax)
 804a792:	c7 40 28 6d 20 73 65 	movl   $0x6573206d,0x28(%eax)
 804a799:	c7 40 2c 72 76 65 72 	movl   $0x72657672,0x2c(%eax)
 804a7a0:	c6 40 30 00          	movb   $0x0,0x30(%eax)
 804a7a4:	83 ec 0c             	sub    $0xc,%esp
 804a7a7:	ff 75 e4             	pushl  -0x1c(%ebp)
 804a7aa:	e8 b1 ea ff ff       	call   8049260 <close@plt>
 804a7af:	83 c4 10             	add    $0x10,%esp
 804a7b2:	b8 ff ff ff ff       	mov    $0xffffffff,%eax
 804a7b7:	e9 00 01 00 00       	jmp    804a8bc <submitr+0x631>
 804a7bc:	83 ec 08             	sub    $0x8,%esp
 804a7bf:	68 11 b7 04 08       	push   $0x804b711
 804a7c4:	8d 85 bc bf ff ff    	lea    -0x4044(%ebp),%eax
 804a7ca:	50                   	push   %eax
 804a7cb:	e8 60 e8 ff ff       	call   8049030 <strcmp@plt>
 804a7d0:	83 c4 10             	add    $0x10,%esp
 804a7d3:	85 c0                	test   %eax,%eax
 804a7d5:	0f 85 4d ff ff ff    	jne    804a728 <submitr+0x49d>
 804a7db:	83 ec 04             	sub    $0x4,%esp
 804a7de:	68 00 20 00 00       	push   $0x2000
 804a7e3:	8d 85 bc bf ff ff    	lea    -0x4044(%ebp),%eax
 804a7e9:	50                   	push   %eax
 804a7ea:	8d 85 bc df ff ff    	lea    -0x2044(%ebp),%eax
 804a7f0:	50                   	push   %eax
 804a7f1:	e8 70 f8 ff ff       	call   804a066 <rio_readlineb>
 804a7f6:	83 c4 10             	add    $0x10,%esp
 804a7f9:	85 c0                	test   %eax,%eax
 804a7fb:	7f 79                	jg     804a876 <submitr+0x5eb>
 804a7fd:	8b 45 20             	mov    0x20(%ebp),%eax
 804a800:	c7 00 45 72 72 6f    	movl   $0x6f727245,(%eax)
 804a806:	c7 40 04 72 3a 20 43 	movl   $0x43203a72,0x4(%eax)
 804a80d:	c7 40 08 6c 69 65 6e 	movl   $0x6e65696c,0x8(%eax)
 804a814:	c7 40 0c 74 20 75 6e 	movl   $0x6e752074,0xc(%eax)
 804a81b:	c7 40 10 61 62 6c 65 	movl   $0x656c6261,0x10(%eax)
 804a822:	c7 40 14 20 74 6f 20 	movl   $0x206f7420,0x14(%eax)
 804a829:	c7 40 18 72 65 61 64 	movl   $0x64616572,0x18(%eax)
 804a830:	c7 40 1c 20 73 74 61 	movl   $0x61747320,0x1c(%eax)
 804a837:	c7 40 20 74 75 73 20 	movl   $0x20737574,0x20(%eax)
 804a83e:	c7 40 24 6d 65 73 73 	movl   $0x7373656d,0x24(%eax)
 804a845:	c7 40 28 61 67 65 20 	movl   $0x20656761,0x28(%eax)
 804a84c:	c7 40 2c 66 72 6f 6d 	movl   $0x6d6f7266,0x2c(%eax)
 804a853:	c7 40 30 20 73 65 72 	movl   $0x72657320,0x30(%eax)
 804a85a:	c7 40 34 76 65 72 00 	movl   $0x726576,0x34(%eax)
 804a861:	83 ec 0c             	sub    $0xc,%esp
 804a864:	ff 75 e4             	pushl  -0x1c(%ebp)
 804a867:	e8 f4 e9 ff ff       	call   8049260 <close@plt>
 804a86c:	83 c4 10             	add    $0x10,%esp
 804a86f:	b8 ff ff ff ff       	mov    $0xffffffff,%eax
 804a874:	eb 46                	jmp    804a8bc <submitr+0x631>
 804a876:	83 ec 08             	sub    $0x8,%esp
 804a879:	8d 85 bc bf ff ff    	lea    -0x4044(%ebp),%eax
 804a87f:	50                   	push   %eax
 804a880:	ff 75 20             	pushl  0x20(%ebp)
 804a883:	e8 68 e8 ff ff       	call   80490f0 <strcpy@plt>
 804a888:	83 c4 10             	add    $0x10,%esp
 804a88b:	83 ec 0c             	sub    $0xc,%esp
 804a88e:	ff 75 e4             	pushl  -0x1c(%ebp)
 804a891:	e8 ca e9 ff ff       	call   8049260 <close@plt>
 804a896:	83 c4 10             	add    $0x10,%esp
 804a899:	83 ec 08             	sub    $0x8,%esp
 804a89c:	68 14 b7 04 08       	push   $0x804b714
 804a8a1:	ff 75 20             	pushl  0x20(%ebp)
 804a8a4:	e8 87 e7 ff ff       	call   8049030 <strcmp@plt>
 804a8a9:	83 c4 10             	add    $0x10,%esp
 804a8ac:	85 c0                	test   %eax,%eax
 804a8ae:	75 07                	jne    804a8b7 <submitr+0x62c>
 804a8b0:	b8 00 00 00 00       	mov    $0x0,%eax
 804a8b5:	eb 05                	jmp    804a8bc <submitr+0x631>
 804a8b7:	b8 ff ff ff ff       	mov    $0xffffffff,%eax
 804a8bc:	8d 65 f4             	lea    -0xc(%ebp),%esp
 804a8bf:	5b                   	pop    %ebx
 804a8c0:	5e                   	pop    %esi
 804a8c1:	5f                   	pop    %edi
 804a8c2:	5d                   	pop    %ebp
 804a8c3:	c3                   	ret    

0804a8c4 <init_timeout>:
 804a8c4:	55                   	push   %ebp
 804a8c5:	89 e5                	mov    %esp,%ebp
 804a8c7:	83 ec 08             	sub    $0x8,%esp
 804a8ca:	83 7d 08 00          	cmpl   $0x0,0x8(%ebp)
 804a8ce:	74 30                	je     804a900 <init_timeout+0x3c>
 804a8d0:	83 7d 08 00          	cmpl   $0x0,0x8(%ebp)
 804a8d4:	79 07                	jns    804a8dd <init_timeout+0x19>
 804a8d6:	c7 45 08 02 00 00 00 	movl   $0x2,0x8(%ebp)
 804a8dd:	83 ec 08             	sub    $0x8,%esp
 804a8e0:	68 55 9f 04 08       	push   $0x8049f55
 804a8e5:	6a 0e                	push   $0xe
 804a8e7:	e8 b4 e7 ff ff       	call   80490a0 <signal@plt>
 804a8ec:	83 c4 10             	add    $0x10,%esp
 804a8ef:	8b 45 08             	mov    0x8(%ebp),%eax
 804a8f2:	83 ec 0c             	sub    $0xc,%esp
 804a8f5:	50                   	push   %eax
 804a8f6:	e8 c5 e7 ff ff       	call   80490c0 <alarm@plt>
 804a8fb:	83 c4 10             	add    $0x10,%esp
 804a8fe:	eb 01                	jmp    804a901 <init_timeout+0x3d>
 804a900:	90                   	nop
 804a901:	c9                   	leave  
 804a902:	c3                   	ret    

0804a903 <init_driver>:
 804a903:	55                   	push   %ebp
 804a904:	89 e5                	mov    %esp,%ebp
 804a906:	83 ec 28             	sub    $0x28,%esp
 804a909:	c7 45 f4 17 b7 04 08 	movl   $0x804b717,-0xc(%ebp)
 804a910:	c7 45 f0 03 d9 00 00 	movl   $0xd903,-0x10(%ebp)
 804a917:	83 ec 08             	sub    $0x8,%esp
 804a91a:	6a 01                	push   $0x1
 804a91c:	6a 0d                	push   $0xd
 804a91e:	e8 7d e7 ff ff       	call   80490a0 <signal@plt>
 804a923:	83 c4 10             	add    $0x10,%esp
 804a926:	83 ec 08             	sub    $0x8,%esp
 804a929:	6a 01                	push   $0x1
 804a92b:	6a 1d                	push   $0x1d
 804a92d:	e8 6e e7 ff ff       	call   80490a0 <signal@plt>
 804a932:	83 c4 10             	add    $0x10,%esp
 804a935:	83 ec 08             	sub    $0x8,%esp
 804a938:	6a 01                	push   $0x1
 804a93a:	6a 1d                	push   $0x1d
 804a93c:	e8 5f e7 ff ff       	call   80490a0 <signal@plt>
 804a941:	83 c4 10             	add    $0x10,%esp
 804a944:	83 ec 04             	sub    $0x4,%esp
 804a947:	6a 00                	push   $0x0
 804a949:	6a 01                	push   $0x1
 804a94b:	6a 02                	push   $0x2
 804a94d:	e8 be e8 ff ff       	call   8049210 <socket@plt>
 804a952:	83 c4 10             	add    $0x10,%esp
 804a955:	89 45 ec             	mov    %eax,-0x14(%ebp)
 804a958:	83 7d ec 00          	cmpl   $0x0,-0x14(%ebp)
 804a95c:	79 51                	jns    804a9af <init_driver+0xac>
 804a95e:	8b 45 08             	mov    0x8(%ebp),%eax
 804a961:	c7 00 45 72 72 6f    	movl   $0x6f727245,(%eax)
 804a967:	c7 40 04 72 3a 20 43 	movl   $0x43203a72,0x4(%eax)
 804a96e:	c7 40 08 6c 69 65 6e 	movl   $0x6e65696c,0x8(%eax)
 804a975:	c7 40 0c 74 20 75 6e 	movl   $0x6e752074,0xc(%eax)
 804a97c:	c7 40 10 61 62 6c 65 	movl   $0x656c6261,0x10(%eax)
 804a983:	c7 40 14 20 74 6f 20 	movl   $0x206f7420,0x14(%eax)
 804a98a:	c7 40 18 63 72 65 61 	movl   $0x61657263,0x18(%eax)
 804a991:	c7 40 1c 74 65 20 73 	movl   $0x73206574,0x1c(%eax)
 804a998:	c7 40 20 6f 63 6b 65 	movl   $0x656b636f,0x20(%eax)
 804a99f:	66 c7 40 24 74 00    	movw   $0x74,0x24(%eax)
 804a9a5:	b8 ff ff ff ff       	mov    $0xffffffff,%eax
 804a9aa:	e9 05 01 00 00       	jmp    804aab4 <init_driver+0x1b1>
 804a9af:	83 ec 0c             	sub    $0xc,%esp
 804a9b2:	ff 75 f4             	pushl  -0xc(%ebp)
 804a9b5:	e8 86 e8 ff ff       	call   8049240 <gethostbyname@plt>
 804a9ba:	83 c4 10             	add    $0x10,%esp
 804a9bd:	89 45 e8             	mov    %eax,-0x18(%ebp)
 804a9c0:	83 7d e8 00          	cmpl   $0x0,-0x18(%ebp)
 804a9c4:	75 2e                	jne    804a9f4 <init_driver+0xf1>
 804a9c6:	83 ec 04             	sub    $0x4,%esp
 804a9c9:	ff 75 f4             	pushl  -0xc(%ebp)
 804a9cc:	68 f0 b5 04 08       	push   $0x804b5f0
 804a9d1:	ff 75 08             	pushl  0x8(%ebp)
 804a9d4:	e8 27 e8 ff ff       	call   8049200 <sprintf@plt>
 804a9d9:	83 c4 10             	add    $0x10,%esp
 804a9dc:	83 ec 0c             	sub    $0xc,%esp
 804a9df:	ff 75 ec             	pushl  -0x14(%ebp)
 804a9e2:	e8 79 e8 ff ff       	call   8049260 <close@plt>
 804a9e7:	83 c4 10             	add    $0x10,%esp
 804a9ea:	b8 ff ff ff ff       	mov    $0xffffffff,%eax
 804a9ef:	e9 c0 00 00 00       	jmp    804aab4 <init_driver+0x1b1>
 804a9f4:	8d 45 d8             	lea    -0x28(%ebp),%eax
 804a9f7:	c7 00 00 00 00 00    	movl   $0x0,(%eax)
 804a9fd:	c7 40 04 00 00 00 00 	movl   $0x0,0x4(%eax)
 804aa04:	c7 40 08 00 00 00 00 	movl   $0x0,0x8(%eax)
 804aa0b:	c7 40 0c 00 00 00 00 	movl   $0x0,0xc(%eax)
 804aa12:	66 c7 45 d8 02 00    	movw   $0x2,-0x28(%ebp)
 804aa18:	8b 45 e8             	mov    -0x18(%ebp),%eax
 804aa1b:	8b 40 0c             	mov    0xc(%eax),%eax
 804aa1e:	89 c2                	mov    %eax,%edx
 804aa20:	8b 45 e8             	mov    -0x18(%ebp),%eax
 804aa23:	8b 40 10             	mov    0x10(%eax),%eax
 804aa26:	8b 00                	mov    (%eax),%eax
 804aa28:	83 ec 04             	sub    $0x4,%esp
 804aa2b:	52                   	push   %edx
 804aa2c:	50                   	push   %eax
 804aa2d:	8d 45 d8             	lea    -0x28(%ebp),%eax
 804aa30:	83 c0 04             	add    $0x4,%eax
 804aa33:	50                   	push   %eax
 804aa34:	e8 37 e6 ff ff       	call   8049070 <memmove@plt>
 804aa39:	83 c4 10             	add    $0x10,%esp
 804aa3c:	8b 45 f0             	mov    -0x10(%ebp),%eax
 804aa3f:	0f b7 c0             	movzwl %ax,%eax
 804aa42:	83 ec 0c             	sub    $0xc,%esp
 804aa45:	50                   	push   %eax
 804aa46:	e8 85 e6 ff ff       	call   80490d0 <htons@plt>
 804aa4b:	83 c4 10             	add    $0x10,%esp
 804aa4e:	66 89 45 da          	mov    %ax,-0x26(%ebp)
 804aa52:	83 ec 04             	sub    $0x4,%esp
 804aa55:	6a 10                	push   $0x10
 804aa57:	8d 45 d8             	lea    -0x28(%ebp),%eax
 804aa5a:	50                   	push   %eax
 804aa5b:	ff 75 ec             	pushl  -0x14(%ebp)
 804aa5e:	e8 ed e7 ff ff       	call   8049250 <connect@plt>
 804aa63:	83 c4 10             	add    $0x10,%esp
 804aa66:	85 c0                	test   %eax,%eax
 804aa68:	79 2b                	jns    804aa95 <init_driver+0x192>
 804aa6a:	ff 75 f0             	pushl  -0x10(%ebp)
 804aa6d:	ff 75 f4             	pushl  -0xc(%ebp)
 804aa70:	68 28 b7 04 08       	push   $0x804b728
 804aa75:	ff 75 08             	pushl  0x8(%ebp)
 804aa78:	e8 83 e7 ff ff       	call   8049200 <sprintf@plt>
 804aa7d:	83 c4 10             	add    $0x10,%esp
 804aa80:	83 ec 0c             	sub    $0xc,%esp
 804aa83:	ff 75 ec             	pushl  -0x14(%ebp)
 804aa86:	e8 d5 e7 ff ff       	call   8049260 <close@plt>
 804aa8b:	83 c4 10             	add    $0x10,%esp
 804aa8e:	b8 ff ff ff ff       	mov    $0xffffffff,%eax
 804aa93:	eb 1f                	jmp    804aab4 <init_driver+0x1b1>
 804aa95:	83 ec 0c             	sub    $0xc,%esp
 804aa98:	ff 75 ec             	pushl  -0x14(%ebp)
 804aa9b:	e8 c0 e7 ff ff       	call   8049260 <close@plt>
 804aaa0:	83 c4 10             	add    $0x10,%esp
 804aaa3:	8b 45 08             	mov    0x8(%ebp),%eax
 804aaa6:	66 c7 00 4f 4b       	movw   $0x4b4f,(%eax)
 804aaab:	c6 40 02 00          	movb   $0x0,0x2(%eax)
 804aaaf:	b8 00 00 00 00       	mov    $0x0,%eax
 804aab4:	c9                   	leave  
 804aab5:	c3                   	ret    

0804aab6 <driver_post>:
 804aab6:	55                   	push   %ebp
 804aab7:	89 e5                	mov    %esp,%ebp
 804aab9:	83 ec 18             	sub    $0x18,%esp
 804aabc:	83 7d 10 00          	cmpl   $0x0,0x10(%ebp)
 804aac0:	74 26                	je     804aae8 <driver_post+0x32>
 804aac2:	83 ec 08             	sub    $0x8,%esp
 804aac5:	ff 75 0c             	pushl  0xc(%ebp)
 804aac8:	68 51 b7 04 08       	push   $0x804b751
 804aacd:	e8 8e e5 ff ff       	call   8049060 <printf@plt>
 804aad2:	83 c4 10             	add    $0x10,%esp
 804aad5:	8b 45 14             	mov    0x14(%ebp),%eax
 804aad8:	66 c7 00 4f 4b       	movw   $0x4b4f,(%eax)
 804aadd:	c6 40 02 00          	movb   $0x0,0x2(%eax)
 804aae1:	b8 00 00 00 00       	mov    $0x0,%eax
 804aae6:	eb 54                	jmp    804ab3c <driver_post+0x86>
 804aae8:	83 7d 08 00          	cmpl   $0x0,0x8(%ebp)
 804aaec:	74 3d                	je     804ab2b <driver_post+0x75>
 804aaee:	8b 45 08             	mov    0x8(%ebp),%eax
 804aaf1:	0f b6 00             	movzbl (%eax),%eax
 804aaf4:	0f b6 c0             	movzbl %al,%eax
 804aaf7:	85 c0                	test   %eax,%eax
 804aaf9:	74 30                	je     804ab2b <driver_post+0x75>
 804aafb:	83 ec 04             	sub    $0x4,%esp
 804aafe:	ff 75 14             	pushl  0x14(%ebp)
 804ab01:	ff 75 0c             	pushl  0xc(%ebp)
 804ab04:	68 68 b7 04 08       	push   $0x804b768
 804ab09:	ff 75 08             	pushl  0x8(%ebp)
 804ab0c:	68 6f b7 04 08       	push   $0x804b76f
 804ab11:	68 03 d9 00 00       	push   $0xd903
 804ab16:	68 17 b7 04 08       	push   $0x804b717
 804ab1b:	e8 6b f7 ff ff       	call   804a28b <submitr>
 804ab20:	83 c4 20             	add    $0x20,%esp
 804ab23:	89 45 f4             	mov    %eax,-0xc(%ebp)
 804ab26:	8b 45 f4             	mov    -0xc(%ebp),%eax
 804ab29:	eb 11                	jmp    804ab3c <driver_post+0x86>
 804ab2b:	8b 45 14             	mov    0x14(%ebp),%eax
 804ab2e:	66 c7 00 4f 4b       	movw   $0x4b4f,(%eax)
 804ab33:	c6 40 02 00          	movb   $0x0,0x2(%eax)
 804ab37:	b8 00 00 00 00       	mov    $0x0,%eax
 804ab3c:	c9                   	leave  
 804ab3d:	c3                   	ret    

0804ab3e <hash>:
 804ab3e:	55                   	push   %ebp
 804ab3f:	89 e5                	mov    %esp,%ebp
 804ab41:	83 ec 10             	sub    $0x10,%esp
 804ab44:	c7 45 fc 00 00 00 00 	movl   $0x0,-0x4(%ebp)
 804ab4b:	eb 1a                	jmp    804ab67 <hash+0x29>
 804ab4d:	8b 45 fc             	mov    -0x4(%ebp),%eax
 804ab50:	6b c8 67             	imul   $0x67,%eax,%ecx
 804ab53:	8b 45 08             	mov    0x8(%ebp),%eax
 804ab56:	8d 50 01             	lea    0x1(%eax),%edx
 804ab59:	89 55 08             	mov    %edx,0x8(%ebp)
 804ab5c:	0f b6 00             	movzbl (%eax),%eax
 804ab5f:	0f be c0             	movsbl %al,%eax
 804ab62:	01 c8                	add    %ecx,%eax
 804ab64:	89 45 fc             	mov    %eax,-0x4(%ebp)
 804ab67:	8b 45 08             	mov    0x8(%ebp),%eax
 804ab6a:	0f b6 00             	movzbl (%eax),%eax
 804ab6d:	84 c0                	test   %al,%al
 804ab6f:	75 dc                	jne    804ab4d <hash+0xf>
 804ab71:	8b 45 fc             	mov    -0x4(%ebp),%eax
 804ab74:	c9                   	leave  
 804ab75:	c3                   	ret    

0804ab76 <check>:
 804ab76:	55                   	push   %ebp
 804ab77:	89 e5                	mov    %esp,%ebp
 804ab79:	83 ec 10             	sub    $0x10,%esp
 804ab7c:	8b 45 08             	mov    0x8(%ebp),%eax
 804ab7f:	c1 e8 1c             	shr    $0x1c,%eax
 804ab82:	85 c0                	test   %eax,%eax
 804ab84:	75 07                	jne    804ab8d <check+0x17>
 804ab86:	b8 00 00 00 00       	mov    $0x0,%eax
 804ab8b:	eb 33                	jmp    804abc0 <check+0x4a>
 804ab8d:	c7 45 fc 00 00 00 00 	movl   $0x0,-0x4(%ebp)
 804ab94:	eb 1f                	jmp    804abb5 <check+0x3f>
 804ab96:	8b 45 fc             	mov    -0x4(%ebp),%eax
 804ab99:	8b 55 08             	mov    0x8(%ebp),%edx
 804ab9c:	89 c1                	mov    %eax,%ecx
 804ab9e:	d3 ea                	shr    %cl,%edx
 804aba0:	89 d0                	mov    %edx,%eax
 804aba2:	0f b6 c0             	movzbl %al,%eax
 804aba5:	83 f8 0a             	cmp    $0xa,%eax
 804aba8:	75 07                	jne    804abb1 <check+0x3b>
 804abaa:	b8 00 00 00 00       	mov    $0x0,%eax
 804abaf:	eb 0f                	jmp    804abc0 <check+0x4a>
 804abb1:	83 45 fc 08          	addl   $0x8,-0x4(%ebp)
 804abb5:	83 7d fc 1f          	cmpl   $0x1f,-0x4(%ebp)
 804abb9:	7e db                	jle    804ab96 <check+0x20>
 804abbb:	b8 01 00 00 00       	mov    $0x1,%eax
 804abc0:	c9                   	leave  
 804abc1:	c3                   	ret    

0804abc2 <gencookie>:
 804abc2:	55                   	push   %ebp
 804abc3:	89 e5                	mov    %esp,%ebp
 804abc5:	83 ec 18             	sub    $0x18,%esp
 804abc8:	ff 75 08             	pushl  0x8(%ebp)
 804abcb:	e8 6e ff ff ff       	call   804ab3e <hash>
 804abd0:	83 c4 04             	add    $0x4,%esp
 804abd3:	83 ec 0c             	sub    $0xc,%esp
 804abd6:	50                   	push   %eax
 804abd7:	e8 64 e5 ff ff       	call   8049140 <srand@plt>
 804abdc:	83 c4 10             	add    $0x10,%esp
 804abdf:	e8 fc e5 ff ff       	call   80491e0 <rand@plt>
 804abe4:	89 45 f4             	mov    %eax,-0xc(%ebp)
 804abe7:	83 ec 0c             	sub    $0xc,%esp
 804abea:	ff 75 f4             	pushl  -0xc(%ebp)
 804abed:	e8 84 ff ff ff       	call   804ab76 <check>
 804abf2:	83 c4 10             	add    $0x10,%esp
 804abf5:	85 c0                	test   %eax,%eax
 804abf7:	74 e6                	je     804abdf <gencookie+0x1d>
 804abf9:	8b 45 f4             	mov    -0xc(%ebp),%eax
 804abfc:	c9                   	leave  
 804abfd:	c3                   	ret    
 804abfe:	66 90                	xchg   %ax,%ax

0804ac00 <__libc_csu_init>:
 804ac00:	55                   	push   %ebp
 804ac01:	57                   	push   %edi
 804ac02:	56                   	push   %esi
 804ac03:	53                   	push   %ebx
 804ac04:	e8 c7 e6 ff ff       	call   80492d0 <__x86.get_pc_thunk.bx>
 804ac09:	81 c3 f7 23 00 00    	add    $0x23f7,%ebx
 804ac0f:	83 ec 0c             	sub    $0xc,%esp
 804ac12:	8b 6c 24 28          	mov    0x28(%esp),%ebp
 804ac16:	e8 e5 e3 ff ff       	call   8049000 <_init>
 804ac1b:	8d b3 10 ff ff ff    	lea    -0xf0(%ebx),%esi
 804ac21:	8d 83 0c ff ff ff    	lea    -0xf4(%ebx),%eax
 804ac27:	29 c6                	sub    %eax,%esi
 804ac29:	c1 fe 02             	sar    $0x2,%esi
 804ac2c:	74 1f                	je     804ac4d <__libc_csu_init+0x4d>
 804ac2e:	31 ff                	xor    %edi,%edi
 804ac30:	83 ec 04             	sub    $0x4,%esp
 804ac33:	55                   	push   %ebp
 804ac34:	ff 74 24 2c          	pushl  0x2c(%esp)
 804ac38:	ff 74 24 2c          	pushl  0x2c(%esp)
 804ac3c:	ff 94 bb 0c ff ff ff 	call   *-0xf4(%ebx,%edi,4)
 804ac43:	83 c7 01             	add    $0x1,%edi
 804ac46:	83 c4 10             	add    $0x10,%esp
 804ac49:	39 fe                	cmp    %edi,%esi
 804ac4b:	75 e3                	jne    804ac30 <__libc_csu_init+0x30>
 804ac4d:	83 c4 0c             	add    $0xc,%esp
 804ac50:	5b                   	pop    %ebx
 804ac51:	5e                   	pop    %esi
 804ac52:	5f                   	pop    %edi
 804ac53:	5d                   	pop    %ebp
 804ac54:	c3                   	ret    
 804ac55:	8d b4 26 00 00 00 00 	lea    0x0(%esi,%eiz,1),%esi
 804ac5c:	8d 74 26 00          	lea    0x0(%esi,%eiz,1),%esi

0804ac60 <__libc_csu_fini>:
 804ac60:	c3                   	ret    

Disassembly of section .fini:

0804ac64 <_fini>:
 804ac64:	53                   	push   %ebx
 804ac65:	83 ec 08             	sub    $0x8,%esp
 804ac68:	e8 63 e6 ff ff       	call   80492d0 <__x86.get_pc_thunk.bx>
 804ac6d:	81 c3 93 23 00 00    	add    $0x2393,%ebx
 804ac73:	83 c4 08             	add    $0x8,%esp
 804ac76:	5b                   	pop    %ebx
 804ac77:	c3                   	ret    
